Certificate:
    Data:
        Version: 3 (0x2)
        Serial Number: 305419898 (0x1234567a)
    Signature Algorithm: sha256WithRSAEncryption
        Issuer: CN=SRK1_sha256_2048_65537_v3_ca
        Validity
            Not Before: Aug  7 06:26:32 2019 GMT
            Not After : Aug  6 06:26:32 2023 GMT
        Subject: CN=IMG1_1_sha256_2048_65537_v3_usr
        Subject Public Key Info:
            Public Key Algorithm: rsaEncryption
                Public-Key: (2048 bit)
                Modulus:
                    00:c3:d9:97:c2:72:28:59:e0:a9:0c:e3:f5:f3:c5:
                    3e:37:0e:53:80:22:40:8b:44:4b:44:60:4f:f8:50:
                    05:fd:f8:dd:e7:6a:6d:9a:46:22:69:af:1c:cc:c5:
                    33:1d:88:1e:42:ce:26:ca:a4:83:e3:c0:1c:b3:17:
                    43:55:c4:91:7f:df:32:d3:f5:9c:30:85:15:25:d5:
                    40:3b:8f:0a:64:5e:f7:48:7c:5a:3a:06:62:ca:37:
                    9b:3b:93:21:9c:24:b6:f0:56:20:84:9c:65:a6:1a:
                    b0:e4:02:7c:8b:62:6a:7b:8b:cc:79:4a:1f:39:b8:
                    42:42:8d:65:06:59:ab:70:fc:4c:0e:b9:b1:b5:7b:
                    79:97:d2:6c:1b:eb:b2:07:ff:70:88:6f:ba:60:4e:
                    57:31:ed:43:89:c2:bf:c6:89:33:8a:c3:80:76:62:
                    1e:30:8d:ff:56:2c:4d:72:87:3f:31:5d:b8:d0:41:
                    87:ff:d5:53:d1:80:ae:97:0e:85:06:c0:6d:c5:c2:
                    3d:33:ec:51:a5:99:da:e3:b5:17:7b:98:b5:a1:1d:
                    25:de:0d:76:f4:67:0b:81:58:00:e5:0a:ab:f9:9f:
                    4a:d5:27:42:49:5a:2e:a1:63:93:06:64:a4:5c:f7:
                    72:61:90:eb:34:34:f4:26:de:e9:5b:6b:90:ce:92:
                    bb:3b
                Exponent: 65537 (0x10001)
        X509v3 extensions:
            X509v3 Basic Constraints: 
                CA:FALSE
            Netscape Comment: 
                OpenSSL Generated Certificate
            X509v3 Subject Key Identifier: 
                23:D2:23:0E:88:FA:16:AD:51:7A:B5:03:FC:E7:0C:95:42:2A:E8:2A
            X509v3 Authority Key Identifier: 
                keyid:0D:FB:07:20:B2:8E:2E:98:0B:A6:9F:F7:6E:B0:91:B0:D5:F3:A6:89

    Signature Algorithm: sha256WithRSAEncryption
         c6:c0:98:82:a1:23:3f:07:dc:d5:df:79:f9:0b:3b:33:46:60:
         86:e6:a6:c1:69:22:82:90:8b:70:84:b7:01:b0:4c:36:87:a8:
         7f:62:12:66:f2:66:1e:26:9b:92:0a:db:32:e4:16:3d:8d:4a:
         d1:91:03:ab:32:eb:3e:44:8d:e8:a2:b3:86:42:91:fa:26:2e:
         14:bc:34:34:ae:e4:a0:3e:d0:49:99:5c:b2:7c:98:0b:89:ce:
         a7:ac:a0:0a:23:77:93:d2:61:0c:80:83:4c:aa:c2:57:a9:ce:
         0a:f7:a2:c0:35:1e:a9:32:7e:80:03:56:87:b3:7d:4a:72:3a:
         6a:7a:c4:e1:89:fc:3b:85:e9:5e:cb:4f:68:8a:47:8e:8d:8d:
         1a:8c:c2:06:89:0c:3e:6d:2e:90:55:72:01:e3:99:eb:2b:43:
         08:4a:d9:3d:dd:b1:d6:78:86:5d:ec:4c:18:d6:7e:77:2e:26:
         56:f4:19:3f:1b:0d:ff:2e:dc:e7:ce:14:ad:5b:cd:38:d1:4a:
         97:4b:ee:90:fc:d9:8b:96:55:f0:df:e5:b0:f3:84:ee:8f:e2:
         be:b3:35:fb:fb:39:8b:c6:14:31:40:41:a5:74:20:b6:be:14:
         b8:5e:d9:b1:0e:b7:17:b2:3a:c1:d9:03:8b:57:b4:ab:2d:9a:
         cd:56:08:18
-----BEGIN CERTIFICATE-----
MIIDSjCCAjKgAwIBAgIEEjRWejANBgkqhkiG9w0BAQsFADAnMSUwIwYDVQQDFBxT
UksxX3NoYTI1Nl8yMDQ4XzY1NTM3X3YzX2NhMB4XDTE5MDgwNzA2MjYzMloXDTIz
MDgwNjA2MjYzMlowKjEoMCYGA1UEAxQfSU1HMV8xX3NoYTI1Nl8yMDQ4XzY1NTM3
X3YzX3VzcjCCASIwDQYJKoZIhvcNAQEBBQADggEPADCCAQoCggEBAMPZl8JyKFng
qQzj9fPFPjcOU4AiQItES0RgT/hQBf343edqbZpGImmvHMzFMx2IHkLOJsqkg+PA
HLMXQ1XEkX/fMtP1nDCFFSXVQDuPCmRe90h8WjoGYso3mzuTIZwktvBWIIScZaYa
sOQCfItianuLzHlKHzm4QkKNZQZZq3D8TA65sbV7eZfSbBvrsgf/cIhvumBOVzHt
Q4nCv8aJM4rDgHZiHjCN/1YsTXKHPzFduNBBh//VU9GArpcOhQbAbcXCPTPsUaWZ
2uO1F3uYtaEdJd4NdvRnC4FYAOUKq/mfStUnQklaLqFjkwZkpFz3cmGQ6zQ09Cbe
6VtrkM6SuzsCAwEAAaN7MHkwCQYDVR0TBAIwADAsBglghkgBhvhCAQ0EHxYdT3Bl
blNTTCBHZW5lcmF0ZWQgQ2VydGlmaWNhdGUwHQYDVR0OBBYEFCPSIw6I+hatUXq1
A/znDJVCKugqMB8GA1UdIwQYMBaAFA37ByCyji6YC6af926wkbDV86aJMA0GCSqG
SIb3DQEBCwUAA4IBAQDGwJiCoSM/B9zV33n5CzszRmCG5qbBaSKCkItwhLcBsEw2
h6h/YhJm8mYeJpuSCtsy5BY9jUrRkQOrMus+RI3oorOGQpH6Ji4UvDQ0ruSgPtBJ
mVyyfJgLic6nrKAKI3eT0mEMgINMqsJXqc4K96LANR6pMn6AA1aHs31KcjpqesTh
ifw7heley09oikeOjY0ajMIGiQw+bS6QVXIB45nrK0MIStk93bHWeIZd7EwY1n53
LiZW9Bk/Gw3/LtznzhStW8040UqXS+6Q/NmLllXw3+Ww84Tuj+K+szX7+zmLxhQx
QEGldCC2vhS4XtmxDrcXsjrB2QOLV7SrLZrNVggY
-----END CERTIFICATE-----
