Certificate:
    Data:
        Version: 3 (0x2)
        Serial Number: 429496742 (0x199999a6)
    Signature Algorithm: sha256WithRSAEncryption
        Issuer: CN=SRK1_sha256_2048_65537_v3_ca
        Validity
            Not Before: Nov 20 10:42:06 2019 GMT
            Not After : Nov 17 10:42:06 2029 GMT
        Subject: CN=CSF1_2_sha256_2048_65537_v3_usr
        Subject Public Key Info:
            Public Key Algorithm: rsaEncryption
                Public-Key: (2048 bit)
                Modulus:
                    00:b7:28:7a:84:8d:b5:43:26:ed:04:7e:4d:61:12:
                    cf:13:6b:d6:b3:a9:9f:6f:4a:a2:21:44:4d:e4:b0:
                    03:9a:56:4a:65:ec:e3:cd:66:b4:d6:aa:38:6c:0a:
                    16:0a:fa:45:97:5f:4a:9c:fe:93:9f:7e:12:7e:0d:
                    83:92:cb:f1:a7:75:fa:2a:99:8a:f5:63:16:9e:50:
                    89:dc:d6:66:f5:96:77:e1:42:72:24:3c:1e:59:38:
                    fc:98:22:de:93:ec:14:a6:3c:20:86:d6:cf:1e:2f:
                    8a:3d:a6:e8:09:d9:f1:0e:b7:43:b1:ea:cd:25:88:
                    ae:6d:34:2c:1f:53:06:69:a6:a1:eb:d6:0d:63:f6:
                    45:be:37:4a:7b:12:44:37:e4:81:df:e2:16:46:7b:
                    2a:e9:18:37:fe:a9:49:81:2f:81:b4:71:5a:89:af:
                    0a:8d:94:90:71:cb:17:fe:92:5c:fe:68:61:41:c2:
                    9e:10:20:29:3e:9a:43:b1:bc:3e:6a:fa:f4:c2:55:
                    bd:d1:76:0c:d3:bc:dc:5a:49:b7:68:44:5b:99:7a:
                    32:df:df:f3:6a:0a:81:f8:d7:a3:af:8c:85:5d:09:
                    b1:da:22:3a:d8:6b:fd:5c:d3:08:1b:b8:9d:34:46:
                    f3:45:61:d3:a9:0d:98:b4:13:58:cf:68:74:01:07:
                    2b:21
                Exponent: 65537 (0x10001)
        X509v3 extensions:
            X509v3 Basic Constraints: 
                CA:FALSE
            Netscape Comment: 
                OpenSSL Generated Certificate
            X509v3 Subject Key Identifier: 
                29:92:88:36:F0:14:C2:AF:FE:6A:DE:73:3D:1B:51:06:D3:CD:DF:3E
            X509v3 Authority Key Identifier: 
                keyid:B8:5D:92:D5:64:F7:27:79:AB:2A:A6:23:9F:27:0A:BD:4C:93:54:D7

    Signature Algorithm: sha256WithRSAEncryption
         58:da:f0:d5:11:f1:85:93:4f:8a:38:b2:53:6b:74:0f:9d:ae:
         04:3a:df:45:10:46:62:5f:33:48:73:fa:6b:40:f0:6e:80:55:
         6f:93:55:70:b8:18:49:b2:10:e4:97:d3:a3:1b:e7:39:bf:98:
         06:68:88:4a:f2:e8:b9:bf:24:86:2b:95:a5:29:49:43:0d:65:
         c3:a4:f8:d5:92:de:2b:d4:35:9d:04:e7:02:01:4e:c3:e4:3b:
         d9:7d:29:d8:00:a3:1f:70:c4:9e:40:62:59:7b:35:38:35:a1:
         28:ec:bc:dc:bf:3a:e4:40:40:0c:7f:3c:e4:9a:78:c5:2f:c1:
         38:6c:8f:e4:37:59:d4:3a:73:a1:55:27:d9:fb:80:28:16:7c:
         b4:a4:2c:30:1b:83:59:c1:6f:7e:3e:df:a9:f1:d2:38:0c:55:
         cb:30:17:98:73:ef:9f:ff:ab:bc:5b:b3:9a:07:f6:7b:6b:6a:
         70:1b:7f:e3:70:e7:c8:1b:49:36:fd:62:a0:c4:a0:88:53:d0:
         0f:c2:b5:60:82:e3:0e:b1:7a:cb:ad:46:00:7a:35:6f:8a:9b:
         17:5a:fa:06:30:3b:49:72:8c:64:6d:45:bb:34:4d:73:96:eb:
         22:bc:cf:ff:9e:e6:51:d3:e3:5d:53:9c:c8:79:20:e5:12:51:
         67:2a:68:95
-----BEGIN CERTIFICATE-----
MIIDSjCCAjKgAwIBAgIEGZmZpjANBgkqhkiG9w0BAQsFADAnMSUwIwYDVQQDFBxT
UksxX3NoYTI1Nl8yMDQ4XzY1NTM3X3YzX2NhMB4XDTE5MTEyMDEwNDIwNloXDTI5
MTExNzEwNDIwNlowKjEoMCYGA1UEAxQfQ1NGMV8yX3NoYTI1Nl8yMDQ4XzY1NTM3
X3YzX3VzcjCCASIwDQYJKoZIhvcNAQEBBQADggEPADCCAQoCggEBALcoeoSNtUMm
7QR+TWESzxNr1rOpn29KoiFETeSwA5pWSmXs481mtNaqOGwKFgr6RZdfSpz+k59+
En4Ng5LL8ad1+iqZivVjFp5QidzWZvWWd+FCciQ8Hlk4/Jgi3pPsFKY8IIbWzx4v
ij2m6AnZ8Q63Q7HqzSWIrm00LB9TBmmmoevWDWP2Rb43SnsSRDfkgd/iFkZ7KukY
N/6pSYEvgbRxWomvCo2UkHHLF/6SXP5oYUHCnhAgKT6aQ7G8Pmr69MJVvdF2DNO8
3FpJt2hEW5l6Mt/f82oKgfjXo6+MhV0JsdoiOthr/VzTCBu4nTRG80Vh06kNmLQT
WM9odAEHKyECAwEAAaN7MHkwCQYDVR0TBAIwADAsBglghkgBhvhCAQ0EHxYdT3Bl
blNTTCBHZW5lcmF0ZWQgQ2VydGlmaWNhdGUwHQYDVR0OBBYEFCmSiDbwFMKv/mre
cz0bUQbTzd8+MB8GA1UdIwQYMBaAFLhdktVk9yd5qyqmI58nCr1Mk1TXMA0GCSqG
SIb3DQEBCwUAA4IBAQBY2vDVEfGFk0+KOLJTa3QPna4EOt9FEEZiXzNIc/prQPBu
gFVvk1VwuBhJshDkl9OjG+c5v5gGaIhK8ui5vySGK5WlKUlDDWXDpPjVkt4r1DWd
BOcCAU7D5DvZfSnYAKMfcMSeQGJZezU4NaEo7LzcvzrkQEAMfzzkmnjFL8E4bI/k
N1nUOnOhVSfZ+4AoFny0pCwwG4NZwW9+Pt+p8dI4DFXLMBeYc++f/6u8W7OaB/Z7
a2pwG3/jcOfIG0k2/WKgxKCIU9APwrVgguMOsXrLrUYAejVvipsXWvoGMDtJcoxk
bUW7NE1zlusivM//nuZR0+NdU5zIeSDlElFnKmiV
-----END CERTIFICATE-----
