Certificate:
    Data:
        Version: 3 (0x2)
        Serial Number: 429496733 (0x1999999d)
    Signature Algorithm: sha256WithRSAEncryption
        Issuer: CN=SRK2_sha256_2048_65537_v3_ca
        Validity
            Not Before: Nov 20 10:41:36 2019 GMT
            Not After : Nov 17 10:41:36 2029 GMT
        Subject: CN=CSF2_1_sha256_2048_65537_v3_usr
        Subject Public Key Info:
            Public Key Algorithm: rsaEncryption
                Public-Key: (2048 bit)
                Modulus:
                    00:ac:f8:36:91:06:00:3d:7d:a4:0c:18:6e:71:a2:
                    3b:d8:85:9a:fb:a3:3e:dc:0d:97:7e:a1:51:f2:31:
                    6c:8f:64:ef:18:63:cc:85:65:1e:97:29:a4:4b:01:
                    9e:6f:a8:84:94:17:ea:ab:f6:cd:22:a5:cf:0f:fe:
                    a5:06:6f:be:7a:30:19:86:4b:0f:94:3f:5d:20:2d:
                    75:37:95:54:6b:f2:a5:57:54:80:7d:3d:22:c5:c9:
                    d3:de:18:c3:f5:01:10:46:cf:32:3e:3f:63:7e:25:
                    ce:ee:ec:21:32:93:0d:2a:c4:0a:09:ed:bf:68:58:
                    5b:5e:84:d9:43:80:27:38:17:68:32:f4:80:9b:58:
                    26:69:64:11:83:50:b1:65:66:af:35:d5:be:cd:f4:
                    82:d0:bc:47:73:69:f7:d8:a4:b9:4e:0d:21:21:fb:
                    c3:5e:ba:f6:91:c4:8e:b0:17:a6:8d:7b:b4:27:92:
                    48:3c:78:a9:83:13:6e:aa:e8:30:5c:18:47:79:8f:
                    11:62:5c:eb:c5:af:fe:71:31:fc:46:17:70:b9:71:
                    e9:6f:04:e1:27:db:10:1f:4d:c4:75:39:7a:c3:11:
                    bc:90:d7:c8:f4:ad:2f:da:f4:54:ba:a0:c6:de:6e:
                    db:22:52:c5:17:6c:81:f3:fc:7d:4e:e8:ba:9e:ab:
                    50:15
                Exponent: 65537 (0x10001)
        X509v3 extensions:
            X509v3 Basic Constraints: 
                CA:FALSE
            Netscape Comment: 
                OpenSSL Generated Certificate
            X509v3 Subject Key Identifier: 
                A8:71:C6:99:C3:08:F8:D3:55:30:E1:7F:9F:69:15:38:FB:A6:DF:4A
            X509v3 Authority Key Identifier: 
                keyid:F1:C2:DC:18:36:5E:AB:59:2D:2F:ED:C5:58:D4:2C:FE:38:29:12:EF

    Signature Algorithm: sha256WithRSAEncryption
         2a:63:aa:6f:20:db:cb:1d:ba:c1:8c:5c:08:6a:63:b0:03:e2:
         15:94:4a:19:6f:ba:80:14:2e:47:94:49:dd:dc:0c:f4:bb:3c:
         79:91:96:34:b9:d1:ff:a3:0e:77:1c:e5:e7:8a:74:44:54:c5:
         c6:2f:d2:47:39:5c:1e:25:56:e7:c2:fa:54:bb:c4:b6:86:89:
         0d:5d:28:51:00:d2:10:02:b6:28:52:a9:90:2b:4c:fc:9c:24:
         3d:15:82:cd:35:89:08:02:1a:3e:37:23:aa:88:13:b1:08:c9:
         5c:70:05:f2:d2:35:e5:45:dd:26:04:eb:c2:4f:2e:a7:8d:58:
         1e:23:49:e3:83:fa:7c:16:38:27:34:82:35:55:3e:07:94:c8:
         f8:1b:91:4a:69:1e:87:1d:fd:c6:a5:db:7d:97:bf:16:ea:f7:
         31:bc:dd:da:2a:fd:7c:e5:15:5e:09:4b:83:b0:17:ec:6f:70:
         d2:03:8c:36:53:a4:e6:47:b5:81:42:27:af:15:58:4d:19:c7:
         c4:c6:e2:5f:d5:3f:ed:7a:da:39:81:f1:cf:c4:45:d3:dc:5f:
         24:63:89:a5:e2:be:97:81:0a:62:d5:de:d9:5c:36:76:c9:36:
         38:0a:86:8a:0a:48:ef:23:5f:d5:fd:0e:07:f7:18:59:41:6b:
         fb:ba:a3:2c
-----BEGIN CERTIFICATE-----
MIIDSjCCAjKgAwIBAgIEGZmZnTANBgkqhkiG9w0BAQsFADAnMSUwIwYDVQQDFBxT
UksyX3NoYTI1Nl8yMDQ4XzY1NTM3X3YzX2NhMB4XDTE5MTEyMDEwNDEzNloXDTI5
MTExNzEwNDEzNlowKjEoMCYGA1UEAxQfQ1NGMl8xX3NoYTI1Nl8yMDQ4XzY1NTM3
X3YzX3VzcjCCASIwDQYJKoZIhvcNAQEBBQADggEPADCCAQoCggEBAKz4NpEGAD19
pAwYbnGiO9iFmvujPtwNl36hUfIxbI9k7xhjzIVlHpcppEsBnm+ohJQX6qv2zSKl
zw/+pQZvvnowGYZLD5Q/XSAtdTeVVGvypVdUgH09IsXJ094Yw/UBEEbPMj4/Y34l
zu7sITKTDSrECgntv2hYW16E2UOAJzgXaDL0gJtYJmlkEYNQsWVmrzXVvs30gtC8
R3Np99ikuU4NISH7w1669pHEjrAXpo17tCeSSDx4qYMTbqroMFwYR3mPEWJc68Wv
/nEx/EYXcLlx6W8E4SfbEB9NxHU5esMRvJDXyPStL9r0VLqgxt5u2yJSxRdsgfP8
fU7oup6rUBUCAwEAAaN7MHkwCQYDVR0TBAIwADAsBglghkgBhvhCAQ0EHxYdT3Bl
blNTTCBHZW5lcmF0ZWQgQ2VydGlmaWNhdGUwHQYDVR0OBBYEFKhxxpnDCPjTVTDh
f59pFTj7pt9KMB8GA1UdIwQYMBaAFPHC3Bg2XqtZLS/txVjULP44KRLvMA0GCSqG
SIb3DQEBCwUAA4IBAQAqY6pvINvLHbrBjFwIamOwA+IVlEoZb7qAFC5HlEnd3Az0
uzx5kZY0udH/ow53HOXninREVMXGL9JHOVweJVbnwvpUu8S2hokNXShRANIQArYo
UqmQK0z8nCQ9FYLNNYkIAho+NyOqiBOxCMlccAXy0jXlRd0mBOvCTy6njVgeI0nj
g/p8FjgnNII1VT4HlMj4G5FKaR6HHf3Gpdt9l78W6vcxvN3aKv185RVeCUuDsBfs
b3DSA4w2U6TmR7WBQievFVhNGcfExuJf1T/teto5gfHPxEXT3F8kY4ml4r6XgQpi
1d7ZXDZ2yTY4CoaKCkjvI1/V/Q4H9xhZQWv7uqMs
-----END CERTIFICATE-----
