Certificate:
    Data:
        Version: 3 (0x2)
        Serial Number: 429496736 (0x199999a0)
    Signature Algorithm: sha256WithRSAEncryption
        Issuer: CN=SRK3_sha256_2048_65537_v3_ca
        Validity
            Not Before: Nov 20 10:41:39 2019 GMT
            Not After : Nov 17 10:41:39 2029 GMT
        Subject: CN=CSF3_1_sha256_2048_65537_v3_usr
        Subject Public Key Info:
            Public Key Algorithm: rsaEncryption
                Public-Key: (2048 bit)
                Modulus:
                    00:d9:c2:46:a4:e8:9b:09:2e:04:90:f2:0f:0c:1f:
                    24:b8:7a:c3:af:72:c2:de:9f:db:30:03:c9:5d:ca:
                    bb:dd:42:cf:1e:b5:a0:8f:de:df:6b:6a:79:54:34:
                    1d:52:b8:27:19:d2:35:c3:e9:80:3c:af:2c:25:ef:
                    3a:20:42:75:31:49:67:a7:a5:eb:29:86:2d:ce:de:
                    2e:a9:23:33:20:30:d6:00:37:6e:51:c0:80:14:ac:
                    8c:a7:9d:e4:9a:d8:c2:59:db:14:04:d5:9f:b9:cd:
                    cf:a1:cc:6d:10:41:02:12:05:a4:d2:ac:83:2b:60:
                    e7:ea:8c:17:f7:ea:d1:61:f9:ea:cb:b9:05:67:8d:
                    6f:fb:5b:43:d8:bd:ea:63:07:69:b4:46:0b:85:8a:
                    9b:1e:c3:5e:b2:d1:38:d9:6b:ee:ce:91:cc:6e:4b:
                    cd:c7:6e:68:f1:08:f8:f0:22:ba:8e:24:e6:f2:6c:
                    30:f4:c3:d1:fa:d0:32:b6:86:dd:45:14:8c:22:2a:
                    ef:4b:d5:25:e2:07:cd:f9:07:ec:bb:08:9c:59:68:
                    60:07:9f:66:74:a7:16:25:79:b0:ff:f3:a5:5b:01:
                    2d:71:bf:40:0b:6c:33:00:1b:8d:d2:f0:94:47:9f:
                    b6:1b:34:85:21:b4:df:ca:49:6c:84:13:bd:25:ef:
                    50:c1
                Exponent: 65537 (0x10001)
        X509v3 extensions:
            X509v3 Basic Constraints: 
                CA:FALSE
            Netscape Comment: 
                OpenSSL Generated Certificate
            X509v3 Subject Key Identifier: 
                14:E1:23:B3:E2:60:70:F5:77:A0:6C:FD:1B:91:B8:A1:E8:3F:08:27
            X509v3 Authority Key Identifier: 
                keyid:6A:1B:F1:01:13:3A:73:E9:C2:3B:A7:23:C8:9D:14:49:75:50:16:03

    Signature Algorithm: sha256WithRSAEncryption
         5a:50:1a:4e:57:f7:64:84:7e:26:c3:d8:2a:13:34:26:b2:fe:
         ca:fd:c2:46:14:c3:e7:a1:eb:03:38:f2:ec:19:07:e1:e5:b1:
         89:89:4f:a1:7a:09:35:c8:ac:a6:bb:c5:ae:88:78:2a:be:79:
         93:69:85:30:8e:d8:08:91:40:f9:4e:91:41:5c:d5:6c:5d:62:
         e7:f0:09:79:8e:4d:c9:8e:4f:27:61:47:76:c2:22:4f:54:16:
         36:4c:54:e9:03:aa:cc:3d:ac:22:42:e1:4e:20:81:38:ce:c8:
         c8:9d:92:c7:4b:6d:1f:95:ae:60:7b:9d:d1:ac:16:d9:67:29:
         d0:39:fb:57:62:c9:13:7a:9a:03:e9:c1:f8:37:a0:13:2f:9d:
         4a:5b:d8:e4:ba:e6:1e:90:e0:85:ec:35:e7:11:18:1c:9f:2c:
         d1:c7:f7:8a:3e:a5:da:60:c5:84:d2:6d:fa:ac:c6:12:e3:95:
         2e:82:ba:da:7a:63:fb:3b:1c:04:16:ac:11:5a:33:c2:4e:f7:
         17:99:07:ec:37:8c:00:10:48:e0:4f:f9:5a:71:63:08:e1:fa:
         2a:45:44:80:b8:ba:b4:85:8b:41:2c:59:11:27:36:a9:ec:ad:
         54:32:aa:ef:06:7d:aa:ff:78:2a:d5:10:97:48:39:ae:fb:74:
         aa:89:b2:d4
-----BEGIN CERTIFICATE-----
MIIDSjCCAjKgAwIBAgIEGZmZoDANBgkqhkiG9w0BAQsFADAnMSUwIwYDVQQDFBxT
UkszX3NoYTI1Nl8yMDQ4XzY1NTM3X3YzX2NhMB4XDTE5MTEyMDEwNDEzOVoXDTI5
MTExNzEwNDEzOVowKjEoMCYGA1UEAxQfQ1NGM18xX3NoYTI1Nl8yMDQ4XzY1NTM3
X3YzX3VzcjCCASIwDQYJKoZIhvcNAQEBBQADggEPADCCAQoCggEBANnCRqTomwku
BJDyDwwfJLh6w69ywt6f2zADyV3Ku91Czx61oI/e32tqeVQ0HVK4JxnSNcPpgDyv
LCXvOiBCdTFJZ6el6ymGLc7eLqkjMyAw1gA3blHAgBSsjKed5JrYwlnbFATVn7nN
z6HMbRBBAhIFpNKsgytg5+qMF/fq0WH56su5BWeNb/tbQ9i96mMHabRGC4WKmx7D
XrLRONlr7s6RzG5LzcduaPEI+PAiuo4k5vJsMPTD0frQMraG3UUUjCIq70vVJeIH
zfkH7LsInFloYAefZnSnFiV5sP/zpVsBLXG/QAtsMwAbjdLwlEefths0hSG038pJ
bIQTvSXvUMECAwEAAaN7MHkwCQYDVR0TBAIwADAsBglghkgBhvhCAQ0EHxYdT3Bl
blNTTCBHZW5lcmF0ZWQgQ2VydGlmaWNhdGUwHQYDVR0OBBYEFBThI7PiYHD1d6Bs
/RuRuKHoPwgnMB8GA1UdIwQYMBaAFGob8QETOnPpwjunI8idFEl1UBYDMA0GCSqG
SIb3DQEBCwUAA4IBAQBaUBpOV/dkhH4mw9gqEzQmsv7K/cJGFMPnoesDOPLsGQfh
5bGJiU+hegk1yKymu8WuiHgqvnmTaYUwjtgIkUD5TpFBXNVsXWLn8Al5jk3Jjk8n
YUd2wiJPVBY2TFTpA6rMPawiQuFOIIE4zsjInZLHS20fla5ge53RrBbZZynQOftX
YskTepoD6cH4N6ATL51KW9jkuuYekOCF7DXnERgcnyzRx/eKPqXaYMWE0m36rMYS
45UugrraemP7OxwEFqwRWjPCTvcXmQfsN4wAEEjgT/lacWMI4foqRUSAuLq0hYtB
LFkRJzap7K1UMqrvBn2q/3gq1RCXSDmu+3SqibLU
-----END CERTIFICATE-----
