Certificate:
    Data:
        Version: 3 (0x2)
        Serial Number: 429496739 (0x199999a3)
    Signature Algorithm: sha256WithRSAEncryption
        Issuer: CN=SRK4_sha256_2048_65537_v3_ca
        Validity
            Not Before: Nov 20 10:41:41 2019 GMT
            Not After : Nov 17 10:41:41 2029 GMT
        Subject: CN=CSF4_1_sha256_2048_65537_v3_usr
        Subject Public Key Info:
            Public Key Algorithm: rsaEncryption
                Public-Key: (2048 bit)
                Modulus:
                    00:aa:b5:62:c6:11:2e:35:a6:d4:b3:27:1d:d1:7d:
                    f0:68:6e:2c:83:23:8a:04:b3:bf:f4:13:74:ae:94:
                    e3:76:67:e0:6f:7c:62:12:15:a0:b6:1b:aa:bd:90:
                    bf:61:8c:1c:e0:4b:b8:07:b1:6f:1c:9f:eb:03:fd:
                    64:22:83:10:1f:c2:09:63:33:65:c7:6a:50:6e:9e:
                    c4:9e:1a:68:cf:14:89:d8:9b:7a:8c:94:e1:84:76:
                    cc:39:bb:34:53:0a:9d:b6:ed:2a:ed:9b:52:6d:d2:
                    55:83:5e:54:86:51:0f:a2:91:10:58:4a:52:4a:8e:
                    ef:d0:8e:62:d4:26:53:70:df:79:45:50:69:ef:5a:
                    db:40:34:a9:c0:df:6b:d3:71:c6:5a:56:5e:35:13:
                    ec:96:3e:d3:d1:58:fd:9e:fb:b4:2b:4b:f5:5f:e0:
                    61:2a:4c:ac:fe:0b:8a:c6:58:cc:c8:41:4e:69:4d:
                    cc:42:6b:4f:f4:bb:ab:10:7f:d6:ac:04:a4:58:67:
                    00:a6:b4:f8:c8:f3:08:0b:77:5b:17:d4:20:f2:4d:
                    60:ff:77:5a:d7:ad:99:de:00:eb:63:37:28:7b:59:
                    ea:6b:0a:c1:ed:85:ba:61:8b:3d:0a:12:f0:e6:78:
                    e3:7a:d2:9b:01:bb:10:b4:72:9e:79:29:eb:6f:65:
                    27:ad
                Exponent: 65537 (0x10001)
        X509v3 extensions:
            X509v3 Basic Constraints: 
                CA:FALSE
            Netscape Comment: 
                OpenSSL Generated Certificate
            X509v3 Subject Key Identifier: 
                40:76:C7:AA:49:42:97:89:7C:21:BB:B2:EE:71:C4:7B:54:DD:70:48
            X509v3 Authority Key Identifier: 
                keyid:26:43:41:ED:D0:18:8B:3C:98:60:AF:C1:D7:FC:42:8A:37:C4:27:4F

    Signature Algorithm: sha256WithRSAEncryption
         10:90:3e:58:74:f9:23:80:3f:bb:95:ae:24:08:47:b0:80:65:
         24:e7:9b:a6:3f:2d:47:1e:3b:a9:57:6b:c2:86:9e:04:ef:df:
         0e:38:41:8a:73:9f:ef:4a:9f:1b:a8:56:d4:bd:2e:a2:74:93:
         f4:73:6e:60:f3:9c:5e:59:a4:2b:fb:d5:34:b1:f5:b0:1b:b9:
         7b:e2:2d:00:8b:d0:f7:95:cf:70:cc:42:59:a6:68:45:92:35:
         ca:ad:85:c3:84:18:24:6a:e6:2e:29:db:2f:41:04:22:2e:50:
         72:cb:fe:d6:2f:15:66:31:93:61:64:ec:b2:59:b8:a0:37:65:
         ce:3d:68:32:c7:3c:49:ff:f9:ee:24:36:dd:8d:89:ba:10:f1:
         52:36:0a:1e:08:b0:d6:33:0b:af:72:7a:81:ff:f5:a5:80:b0:
         1e:ef:8a:d4:bb:7e:9e:c6:1a:16:91:33:81:7e:8c:14:68:ea:
         e7:8e:d4:2b:4b:02:7b:96:e5:58:1f:2a:50:b9:74:29:60:bb:
         34:57:95:30:a5:a6:72:d8:f7:44:8d:ff:d2:64:fb:21:ae:25:
         98:4a:86:b0:bb:60:50:26:a9:b7:d3:a5:89:d3:8d:fa:c5:af:
         ce:c0:7b:e6:c5:b1:4f:02:fa:f8:3c:9a:b3:05:e5:7c:e8:5c:
         52:9c:9e:0a
-----BEGIN CERTIFICATE-----
MIIDSjCCAjKgAwIBAgIEGZmZozANBgkqhkiG9w0BAQsFADAnMSUwIwYDVQQDFBxT
Uks0X3NoYTI1Nl8yMDQ4XzY1NTM3X3YzX2NhMB4XDTE5MTEyMDEwNDE0MVoXDTI5
MTExNzEwNDE0MVowKjEoMCYGA1UEAxQfQ1NGNF8xX3NoYTI1Nl8yMDQ4XzY1NTM3
X3YzX3VzcjCCASIwDQYJKoZIhvcNAQEBBQADggEPADCCAQoCggEBAKq1YsYRLjWm
1LMnHdF98GhuLIMjigSzv/QTdK6U43Zn4G98YhIVoLYbqr2Qv2GMHOBLuAexbxyf
6wP9ZCKDEB/CCWMzZcdqUG6exJ4aaM8UidibeoyU4YR2zDm7NFMKnbbtKu2bUm3S
VYNeVIZRD6KREFhKUkqO79COYtQmU3DfeUVQae9a20A0qcDfa9NxxlpWXjUT7JY+
09FY/Z77tCtL9V/gYSpMrP4LisZYzMhBTmlNzEJrT/S7qxB/1qwEpFhnAKa0+Mjz
CAt3WxfUIPJNYP93Wtetmd4A62M3KHtZ6msKwe2FumGLPQoS8OZ443rSmwG7ELRy
nnkp629lJ60CAwEAAaN7MHkwCQYDVR0TBAIwADAsBglghkgBhvhCAQ0EHxYdT3Bl
blNTTCBHZW5lcmF0ZWQgQ2VydGlmaWNhdGUwHQYDVR0OBBYEFEB2x6pJQpeJfCG7
su5xxHtU3XBIMB8GA1UdIwQYMBaAFCZDQe3QGIs8mGCvwdf8Qoo3xCdPMA0GCSqG
SIb3DQEBCwUAA4IBAQAQkD5YdPkjgD+7la4kCEewgGUk55umPy1HHjupV2vChp4E
798OOEGKc5/vSp8bqFbUvS6idJP0c25g85xeWaQr+9U0sfWwG7l74i0Ai9D3lc9w
zEJZpmhFkjXKrYXDhBgkauYuKdsvQQQiLlByy/7WLxVmMZNhZOyyWbigN2XOPWgy
xzxJ//nuJDbdjYm6EPFSNgoeCLDWMwuvcnqB//WlgLAe74rUu36exhoWkTOBfowU
aOrnjtQrSwJ7luVYHypQuXQpYLs0V5UwpaZy2PdEjf/SZPshriWYSoawu2BQJqm3
06WJ0436xa/OwHvmxbFPAvr4PJqzBeV86FxSnJ4K
-----END CERTIFICATE-----
