Certificate:
    Data:
        Version: 3 (0x2)
        Serial Number: 429496741 (0x199999a5)
    Signature Algorithm: sha256WithRSAEncryption
        Issuer: CN=SRK1_sha256_2048_65537_v3_ca
        Validity
            Not Before: Nov 20 10:42:06 2019 GMT
            Not After : Nov 17 10:42:06 2029 GMT
        Subject: CN=IMG1_2_sha256_2048_65537_v3_usr
        Subject Public Key Info:
            Public Key Algorithm: rsaEncryption
                Public-Key: (2048 bit)
                Modulus:
                    00:c1:91:ec:05:67:1d:16:aa:ca:45:31:17:71:06:
                    a2:d0:ea:4a:20:88:a3:b3:26:e2:3a:ec:ea:7f:4a:
                    42:8f:98:30:10:e8:88:4d:3a:1a:75:e6:fb:5d:c5:
                    51:94:d1:b0:01:92:cc:84:4f:dc:27:56:b9:9c:a4:
                    09:95:fd:72:13:fa:38:e8:71:68:0f:b0:43:10:e8:
                    86:63:c1:9a:42:dc:e7:42:17:27:ab:0f:b6:84:f7:
                    c8:c3:44:e8:5c:f3:8c:46:27:62:a6:be:67:d5:9f:
                    5d:5e:ce:94:0f:5c:d7:51:05:db:18:d6:a0:e5:32:
                    7c:d1:20:ca:49:e9:6d:27:ab:f7:62:2c:c4:c4:90:
                    c6:ef:04:85:78:d3:ca:e0:57:39:ff:a4:c5:a8:39:
                    f9:bd:1a:0c:17:ec:bf:f4:47:85:c1:4b:a6:16:84:
                    2e:62:be:b4:7e:32:b7:43:84:af:1f:81:95:b9:13:
                    54:ca:ed:9f:2f:8d:2a:02:09:93:d1:c5:59:43:77:
                    62:8a:e3:a1:e5:8d:34:a0:c9:90:0a:15:99:73:d0:
                    db:86:cc:e8:bf:ce:e5:dc:bf:78:ad:e1:74:c4:b8:
                    99:aa:1e:ce:42:5d:e9:51:44:1b:96:78:08:75:c0:
                    32:c8:28:24:9c:12:36:5b:53:5b:cc:b7:db:b1:af:
                    53:63
                Exponent: 65537 (0x10001)
        X509v3 extensions:
            X509v3 Basic Constraints: 
                CA:FALSE
            Netscape Comment: 
                OpenSSL Generated Certificate
            X509v3 Subject Key Identifier: 
                56:34:00:75:B3:F2:94:BB:FA:57:D7:78:26:98:4E:9B:BB:4F:F1:5E
            X509v3 Authority Key Identifier: 
                keyid:B8:5D:92:D5:64:F7:27:79:AB:2A:A6:23:9F:27:0A:BD:4C:93:54:D7

    Signature Algorithm: sha256WithRSAEncryption
         ac:b0:75:61:1e:ff:51:b0:70:bd:4e:65:03:c4:02:4e:57:ce:
         aa:29:2a:63:f1:2a:4b:fd:5b:26:d7:9e:a7:9b:63:75:4a:3a:
         09:6c:c5:8e:e1:33:5f:29:fe:a4:12:06:68:05:70:7a:79:cf:
         56:ec:ec:7a:d0:95:02:3c:d2:bb:58:64:dd:f5:26:c4:a7:6a:
         73:0b:b9:b5:3b:b6:d6:ce:9b:2e:5f:88:5d:ca:d2:01:ea:85:
         68:94:57:f4:1a:02:69:6d:ca:00:00:6f:d6:c8:69:89:73:48:
         af:c5:8b:38:c2:7a:ed:98:ba:52:ca:54:dd:b3:f4:00:45:41:
         a9:58:44:10:11:22:e5:3e:d6:9e:14:22:1a:e0:ed:0e:55:d1:
         84:54:e9:ef:4c:22:fe:15:cd:9a:9c:1a:d2:bd:ec:53:3a:5a:
         5f:5e:3c:7f:3e:e1:48:d0:77:32:30:a0:e5:3f:f9:12:5f:f0:
         fa:7c:e5:33:77:b7:7f:98:b4:71:5e:50:58:07:72:f3:d8:d9:
         ae:ae:f8:ef:b5:e7:65:c1:d7:ab:3f:f9:57:f8:1e:67:96:7e:
         f4:e8:83:3d:d4:53:d9:a8:65:72:b2:17:4b:1e:b7:71:41:ef:
         8d:52:9b:2f:03:b7:76:e0:ee:ca:71:95:d6:6a:b3:5b:5c:4b:
         bf:88:34:cd
-----BEGIN CERTIFICATE-----
MIIDSjCCAjKgAwIBAgIEGZmZpTANBgkqhkiG9w0BAQsFADAnMSUwIwYDVQQDFBxT
UksxX3NoYTI1Nl8yMDQ4XzY1NTM3X3YzX2NhMB4XDTE5MTEyMDEwNDIwNloXDTI5
MTExNzEwNDIwNlowKjEoMCYGA1UEAxQfSU1HMV8yX3NoYTI1Nl8yMDQ4XzY1NTM3
X3YzX3VzcjCCASIwDQYJKoZIhvcNAQEBBQADggEPADCCAQoCggEBAMGR7AVnHRaq
ykUxF3EGotDqSiCIo7Mm4jrs6n9KQo+YMBDoiE06GnXm+13FUZTRsAGSzIRP3CdW
uZykCZX9chP6OOhxaA+wQxDohmPBmkLc50IXJ6sPtoT3yMNE6FzzjEYnYqa+Z9Wf
XV7OlA9c11EF2xjWoOUyfNEgyknpbSer92IsxMSQxu8EhXjTyuBXOf+kxag5+b0a
DBfsv/RHhcFLphaELmK+tH4yt0OErx+BlbkTVMrtny+NKgIJk9HFWUN3YorjoeWN
NKDJkAoVmXPQ24bM6L/O5dy/eK3hdMS4maoezkJd6VFEG5Z4CHXAMsgoJJwSNltT
W8y327GvU2MCAwEAAaN7MHkwCQYDVR0TBAIwADAsBglghkgBhvhCAQ0EHxYdT3Bl
blNTTCBHZW5lcmF0ZWQgQ2VydGlmaWNhdGUwHQYDVR0OBBYEFFY0AHWz8pS7+lfX
eCaYTpu7T/FeMB8GA1UdIwQYMBaAFLhdktVk9yd5qyqmI58nCr1Mk1TXMA0GCSqG
SIb3DQEBCwUAA4IBAQCssHVhHv9RsHC9TmUDxAJOV86qKSpj8SpL/Vsm156nm2N1
SjoJbMWO4TNfKf6kEgZoBXB6ec9W7Ox60JUCPNK7WGTd9SbEp2pzC7m1O7bWzpsu
X4hdytIB6oVolFf0GgJpbcoAAG/WyGmJc0ivxYs4wnrtmLpSylTds/QARUGpWEQQ
ESLlPtaeFCIa4O0OVdGEVOnvTCL+Fc2anBrSvexTOlpfXjx/PuFI0HcyMKDlP/kS
X/D6fOUzd7d/mLRxXlBYB3Lz2NmurvjvtedlwderP/lX+B5nln706IM91FPZqGVy
shdLHrdxQe+NUpsvA7d24O7KcZXWarNbXEu/iDTN
-----END CERTIFICATE-----
