Certificate:
    Data:
        Version: 3 (0x2)
        Serial Number: 429496734 (0x1999999e)
    Signature Algorithm: sha256WithRSAEncryption
        Issuer: CN=SRK2_sha256_2048_65537_v3_ca
        Validity
            Not Before: Nov 20 10:41:37 2019 GMT
            Not After : Nov 17 10:41:37 2029 GMT
        Subject: CN=IMG2_1_sha256_2048_65537_v3_usr
        Subject Public Key Info:
            Public Key Algorithm: rsaEncryption
                Public-Key: (2048 bit)
                Modulus:
                    00:f5:32:14:af:d1:65:22:d2:35:5a:b7:ea:5c:32:
                    bb:de:b0:6b:7c:b0:38:f2:c8:c1:46:c4:e8:86:84:
                    9c:fa:72:90:99:c5:f8:ac:b6:0d:9e:5a:d8:f7:e7:
                    f5:12:c7:34:b0:3a:44:32:aa:7a:81:87:f6:39:d7:
                    06:56:7d:53:f0:c6:de:93:73:3a:72:33:49:2f:ee:
                    44:42:a9:2d:bd:a3:e1:cd:05:da:49:65:f6:f3:d7:
                    f9:ce:a6:91:09:ff:90:41:5b:89:2c:dc:5c:1e:5d:
                    df:94:1e:68:8d:8c:70:f4:a5:19:c0:08:ef:e9:b6:
                    79:b4:32:b7:eb:6b:69:1f:40:d1:cd:b1:0a:50:e0:
                    e7:bc:56:4d:4a:ca:9f:8e:21:d7:95:18:64:ad:e8:
                    cb:2d:64:73:bb:a6:9d:eb:8e:73:61:ad:e7:ab:a6:
                    9f:66:12:fc:8e:32:e2:1f:12:38:3c:a4:6b:62:d2:
                    fd:79:ea:d4:34:39:ad:aa:02:12:84:66:77:d2:c8:
                    16:c0:64:34:c8:c3:e6:c8:64:48:a3:f9:25:29:ee:
                    fa:ae:3b:84:e5:a1:04:3a:26:f3:14:eb:0c:65:e8:
                    97:aa:59:82:bc:67:71:3c:ae:a1:a3:1b:51:00:aa:
                    6c:d9:86:1c:67:a6:2e:d0:e1:ea:91:36:e8:43:3b:
                    61:df
                Exponent: 65537 (0x10001)
        X509v3 extensions:
            X509v3 Basic Constraints: 
                CA:FALSE
            Netscape Comment: 
                OpenSSL Generated Certificate
            X509v3 Subject Key Identifier: 
                30:A7:4F:A4:7E:C3:9A:6F:6D:3D:7A:56:60:E9:26:4C:26:AA:DB:10
            X509v3 Authority Key Identifier: 
                keyid:F1:C2:DC:18:36:5E:AB:59:2D:2F:ED:C5:58:D4:2C:FE:38:29:12:EF

    Signature Algorithm: sha256WithRSAEncryption
         5d:a7:7c:66:5c:33:b8:7c:c8:ec:4a:0f:20:f1:36:f2:0b:a7:
         8f:53:7b:0a:63:04:25:76:b9:6c:fc:22:e1:b8:ee:5d:ac:81:
         d6:c9:06:45:9b:5a:e0:50:ce:f2:b2:50:0d:bd:af:b2:02:08:
         2b:32:35:3d:cd:c9:41:0c:7f:08:0c:72:26:a2:05:a5:74:58:
         f0:6c:b9:23:b1:1b:5a:79:de:a6:c3:22:28:3e:aa:2a:4e:c7:
         f1:f1:fc:60:bb:6f:8e:8c:91:12:e8:25:70:c7:88:41:c6:10:
         99:ab:d3:4f:92:5f:cd:6f:4b:16:6e:d2:5f:96:9d:1d:fb:8e:
         36:03:67:48:ce:4c:15:3f:10:56:04:fa:b5:2f:c8:6f:90:dd:
         75:89:d8:53:3a:1e:fa:02:e0:f8:e3:07:a4:df:8c:27:c3:33:
         4d:c1:34:b8:05:5a:38:28:39:00:a8:fd:eb:5a:89:3a:79:5d:
         6d:4a:82:b0:23:d5:8d:7d:73:f7:36:3a:51:e2:74:74:5c:c5:
         a9:4a:18:25:78:3f:15:ba:cc:ca:77:e0:a2:c5:78:00:3a:b8:
         19:25:c0:11:f0:fa:53:e9:e7:3c:13:6d:a2:fc:ad:92:98:b5:
         95:80:58:57:a6:80:04:13:21:f2:49:2c:65:b5:de:2c:e2:90:
         ca:8c:5f:98
-----BEGIN CERTIFICATE-----
MIIDSjCCAjKgAwIBAgIEGZmZnjANBgkqhkiG9w0BAQsFADAnMSUwIwYDVQQDFBxT
UksyX3NoYTI1Nl8yMDQ4XzY1NTM3X3YzX2NhMB4XDTE5MTEyMDEwNDEzN1oXDTI5
MTExNzEwNDEzN1owKjEoMCYGA1UEAxQfSU1HMl8xX3NoYTI1Nl8yMDQ4XzY1NTM3
X3YzX3VzcjCCASIwDQYJKoZIhvcNAQEBBQADggEPADCCAQoCggEBAPUyFK/RZSLS
NVq36lwyu96wa3ywOPLIwUbE6IaEnPpykJnF+Ky2DZ5a2Pfn9RLHNLA6RDKqeoGH
9jnXBlZ9U/DG3pNzOnIzSS/uREKpLb2j4c0F2kll9vPX+c6mkQn/kEFbiSzcXB5d
35QeaI2McPSlGcAI7+m2ebQyt+traR9A0c2xClDg57xWTUrKn44h15UYZK3oyy1k
c7umneuOc2Gt56umn2YS/I4y4h8SODyka2LS/Xnq1DQ5raoCEoRmd9LIFsBkNMjD
5shkSKP5JSnu+q47hOWhBDom8xTrDGXol6pZgrxncTyuoaMbUQCqbNmGHGemLtDh
6pE26EM7Yd8CAwEAAaN7MHkwCQYDVR0TBAIwADAsBglghkgBhvhCAQ0EHxYdT3Bl
blNTTCBHZW5lcmF0ZWQgQ2VydGlmaWNhdGUwHQYDVR0OBBYEFDCnT6R+w5pvbT16
VmDpJkwmqtsQMB8GA1UdIwQYMBaAFPHC3Bg2XqtZLS/txVjULP44KRLvMA0GCSqG
SIb3DQEBCwUAA4IBAQBdp3xmXDO4fMjsSg8g8TbyC6ePU3sKYwQldrls/CLhuO5d
rIHWyQZFm1rgUM7yslANva+yAggrMjU9zclBDH8IDHImogWldFjwbLkjsRtaed6m
wyIoPqoqTsfx8fxgu2+OjJES6CVwx4hBxhCZq9NPkl/Nb0sWbtJflp0d+442A2dI
zkwVPxBWBPq1L8hvkN11idhTOh76AuD44wek34wnwzNNwTS4BVo4KDkAqP3rWok6
eV1tSoKwI9WNfXP3NjpR4nR0XMWpShgleD8VuszKd+CixXgAOrgZJcAR8PpT6ec8
E22i/K2SmLWVgFhXpoAEEyHySSxltd4s4pDKjF+Y
-----END CERTIFICATE-----
