Certificate:
    Data:
        Version: 3 (0x2)
        Serial Number: 429496737 (0x199999a1)
    Signature Algorithm: sha256WithRSAEncryption
        Issuer: CN=SRK3_sha256_2048_65537_v3_ca
        Validity
            Not Before: Nov 20 10:41:39 2019 GMT
            Not After : Nov 17 10:41:39 2029 GMT
        Subject: CN=IMG3_1_sha256_2048_65537_v3_usr
        Subject Public Key Info:
            Public Key Algorithm: rsaEncryption
                Public-Key: (2048 bit)
                Modulus:
                    00:d6:1c:a6:a7:2a:46:26:46:1c:d0:3f:9a:07:05:
                    38:e8:ce:50:d9:93:f0:ab:6d:64:66:a8:2e:6c:c6:
                    4a:de:aa:ce:db:0e:61:57:16:d0:5c:a0:64:a3:99:
                    90:d7:a1:4f:1b:f1:d2:9f:36:6b:1c:2a:b2:72:32:
                    20:66:d2:7e:f4:39:57:20:3e:aa:72:b0:88:5a:e6:
                    4f:66:ad:96:ea:ee:b6:20:ad:39:25:1d:76:29:1b:
                    b4:ab:0e:64:d9:0c:93:59:76:37:37:ec:e9:b0:95:
                    23:73:92:a9:6d:36:87:1b:99:5b:0b:17:d1:f3:1f:
                    35:6e:ce:99:e0:72:97:47:e0:76:a1:91:50:64:20:
                    d8:2d:f7:83:7f:d2:8f:f6:e4:79:d0:1c:a9:84:28:
                    a3:bb:23:16:fa:0c:91:cd:e8:16:18:3c:a2:db:b0:
                    aa:91:ed:00:dd:23:3f:2b:94:5b:65:18:ea:63:76:
                    6d:cf:09:ed:77:8b:44:00:9c:f6:a9:bf:bd:d2:f2:
                    ae:09:e3:82:19:a3:f4:fa:56:a2:ed:4a:41:ff:12:
                    9e:ed:d3:55:e8:eb:d3:84:25:51:74:df:d3:b9:2a:
                    0b:96:c4:87:91:88:03:97:04:ac:e1:77:1d:bf:7c:
                    b6:9d:14:e5:79:03:7e:f5:08:62:77:69:42:c7:f1:
                    08:31
                Exponent: 65537 (0x10001)
        X509v3 extensions:
            X509v3 Basic Constraints: 
                CA:FALSE
            Netscape Comment: 
                OpenSSL Generated Certificate
            X509v3 Subject Key Identifier: 
                C8:A3:81:A0:11:AE:19:4D:FB:D3:7B:AD:6F:6A:5E:04:53:46:9D:4D
            X509v3 Authority Key Identifier: 
                keyid:6A:1B:F1:01:13:3A:73:E9:C2:3B:A7:23:C8:9D:14:49:75:50:16:03

    Signature Algorithm: sha256WithRSAEncryption
         1e:06:0e:51:0d:2c:67:1a:39:db:75:54:a5:22:69:4c:e5:d5:
         e5:bd:b5:ab:23:02:9f:5d:d5:51:0c:3a:bd:53:94:b0:9c:56:
         c7:10:60:5f:67:11:fb:33:73:9c:dd:b6:a3:09:a6:21:7f:88:
         b7:61:f1:bc:e4:e8:1f:15:12:b6:5a:b3:01:64:eb:4f:85:47:
         5c:f4:7e:f3:2c:56:2f:05:5e:19:5b:39:01:45:d7:e7:45:4e:
         cd:ee:7e:62:2d:74:cf:50:d9:33:2a:e0:cf:1e:1f:c0:eb:08:
         23:10:c2:38:0c:2f:fe:16:fd:e4:f1:09:9d:9d:f1:f9:d9:f2:
         da:d5:a4:92:08:94:d7:0b:d6:f6:ef:f2:b1:05:fb:8c:90:f1:
         76:8e:f4:d6:76:ca:ec:e6:ce:80:dc:0a:49:92:34:8c:9b:55:
         84:1e:8e:67:f7:c4:aa:05:c4:a6:f5:55:85:dd:0f:1b:98:79:
         06:94:68:cb:1f:81:e2:5a:2a:25:0f:bc:e5:c1:b3:b3:76:04:
         8b:a4:e2:05:f1:06:c3:26:e7:19:09:1b:92:55:11:ab:f8:e7:
         48:fc:22:91:f9:62:28:1a:3f:9f:05:c8:f5:f4:71:df:ab:30:
         74:96:30:51:20:73:69:58:51:59:79:28:d3:28:2a:10:b8:e4:
         db:2e:97:0a
-----BEGIN CERTIFICATE-----
MIIDSjCCAjKgAwIBAgIEGZmZoTANBgkqhkiG9w0BAQsFADAnMSUwIwYDVQQDFBxT
UkszX3NoYTI1Nl8yMDQ4XzY1NTM3X3YzX2NhMB4XDTE5MTEyMDEwNDEzOVoXDTI5
MTExNzEwNDEzOVowKjEoMCYGA1UEAxQfSU1HM18xX3NoYTI1Nl8yMDQ4XzY1NTM3
X3YzX3VzcjCCASIwDQYJKoZIhvcNAQEBBQADggEPADCCAQoCggEBANYcpqcqRiZG
HNA/mgcFOOjOUNmT8KttZGaoLmzGSt6qztsOYVcW0FygZKOZkNehTxvx0p82axwq
snIyIGbSfvQ5VyA+qnKwiFrmT2atlurutiCtOSUddikbtKsOZNkMk1l2Nzfs6bCV
I3OSqW02hxuZWwsX0fMfNW7OmeByl0fgdqGRUGQg2C33g3/Sj/bkedAcqYQoo7sj
FvoMkc3oFhg8otuwqpHtAN0jPyuUW2UY6mN2bc8J7XeLRACc9qm/vdLyrgnjghmj
9PpWou1KQf8Snu3TVejr04QlUXTf07kqC5bEh5GIA5cErOF3Hb98tp0U5XkDfvUI
YndpQsfxCDECAwEAAaN7MHkwCQYDVR0TBAIwADAsBglghkgBhvhCAQ0EHxYdT3Bl
blNTTCBHZW5lcmF0ZWQgQ2VydGlmaWNhdGUwHQYDVR0OBBYEFMijgaARrhlN+9N7
rW9qXgRTRp1NMB8GA1UdIwQYMBaAFGob8QETOnPpwjunI8idFEl1UBYDMA0GCSqG
SIb3DQEBCwUAA4IBAQAeBg5RDSxnGjnbdVSlImlM5dXlvbWrIwKfXdVRDDq9U5Sw
nFbHEGBfZxH7M3Oc3bajCaYhf4i3YfG85OgfFRK2WrMBZOtPhUdc9H7zLFYvBV4Z
WzkBRdfnRU7N7n5iLXTPUNkzKuDPHh/A6wgjEMI4DC/+Fv3k8QmdnfH52fLa1aSS
CJTXC9b27/KxBfuMkPF2jvTWdsrs5s6A3ApJkjSMm1WEHo5n98SqBcSm9VWF3Q8b
mHkGlGjLH4HiWiolD7zlwbOzdgSLpOIF8QbDJucZCRuSVRGr+OdI/CKR+WIoGj+f
Bcj19HHfqzB0ljBRIHNpWFFZeSjTKCoQuOTbLpcK
-----END CERTIFICATE-----
