Certificate:
    Data:
        Version: 3 (0x2)
        Serial Number: 429496740 (0x199999a4)
    Signature Algorithm: sha256WithRSAEncryption
        Issuer: CN=SRK4_sha256_2048_65537_v3_ca
        Validity
            Not Before: Nov 20 10:41:42 2019 GMT
            Not After : Nov 17 10:41:42 2029 GMT
        Subject: CN=IMG4_1_sha256_2048_65537_v3_usr
        Subject Public Key Info:
            Public Key Algorithm: rsaEncryption
                Public-Key: (2048 bit)
                Modulus:
                    00:ac:84:91:d2:ef:df:b9:43:d9:34:e3:f4:d6:ba:
                    d6:0a:bc:cc:58:05:79:04:de:d5:08:49:91:06:d5:
                    69:a4:0c:41:fa:b5:e0:9a:87:49:4c:9f:78:8d:0d:
                    a7:94:9a:25:b2:9f:15:2f:1b:9e:86:ba:25:f8:fb:
                    75:49:80:89:73:d3:5c:e9:0c:8e:a6:b1:cd:9f:c6:
                    7e:ad:a2:5e:82:41:0e:ee:9b:88:cb:df:09:5b:55:
                    ad:d0:fd:18:29:cf:d4:20:84:2d:fb:f5:fe:83:b1:
                    e8:64:df:c1:3c:d3:f0:d3:fc:2e:2e:de:a3:81:ae:
                    4b:c4:33:31:c6:98:d4:aa:a6:06:68:31:3a:1c:0d:
                    75:98:ff:27:a6:6b:df:c8:6e:79:09:22:0e:97:b1:
                    fa:14:8f:20:ab:fd:04:30:9e:ce:46:be:6e:73:63:
                    2d:30:94:9b:6c:6b:29:c5:26:cc:f5:e9:18:42:92:
                    11:cb:b0:78:c1:49:8c:d3:72:8d:4b:96:2c:bf:72:
                    e6:6e:f1:98:40:4e:61:49:ca:ca:62:c6:c4:dd:8e:
                    e9:c8:71:83:67:a8:2a:aa:1b:9f:50:0e:08:62:8f:
                    78:6f:f7:29:72:ef:fd:9d:ff:7b:ef:3f:43:bb:cb:
                    4e:bc:38:ae:73:44:bc:ab:18:3e:c9:1e:f1:59:44:
                    58:b3
                Exponent: 65537 (0x10001)
        X509v3 extensions:
            X509v3 Basic Constraints: 
                CA:FALSE
            Netscape Comment: 
                OpenSSL Generated Certificate
            X509v3 Subject Key Identifier: 
                1D:9E:6C:41:3A:C0:9F:36:04:41:50:80:3B:AF:32:8A:13:EF:40:4E
            X509v3 Authority Key Identifier: 
                keyid:26:43:41:ED:D0:18:8B:3C:98:60:AF:C1:D7:FC:42:8A:37:C4:27:4F

    Signature Algorithm: sha256WithRSAEncryption
         5c:20:74:05:68:8b:40:92:67:4e:83:4f:ce:23:ee:d4:14:c4:
         fd:72:36:fd:d0:56:61:ee:5d:9e:64:52:ab:8d:e3:15:66:8b:
         30:7a:ae:c3:04:8a:b2:7e:62:fe:75:d6:3a:21:5c:d1:24:00:
         46:8d:13:6d:b6:1d:eb:bd:ae:6f:38:eb:3d:8f:56:b6:e3:f1:
         4f:cc:fe:11:83:73:7b:a0:f3:f2:fd:12:40:bb:b2:68:15:66:
         c2:92:b5:03:8f:21:2c:d3:66:e5:ae:48:83:a4:26:b1:8c:3e:
         60:f8:1f:d2:50:c3:e1:d8:66:10:eb:af:e4:74:73:fc:28:1f:
         5f:ca:81:75:cd:e1:9c:20:99:a5:62:32:54:21:7d:cb:16:e3:
         ee:94:a4:e5:ab:b4:ea:aa:6f:7a:28:3c:af:eb:20:7c:b1:e6:
         ed:24:35:79:70:67:42:bc:49:36:ca:9f:7b:40:a4:8f:36:87:
         ce:a0:f3:65:32:37:02:26:2a:1c:3e:64:86:02:3e:0f:10:cd:
         88:3b:9f:93:78:10:d9:8b:a1:4b:70:48:68:92:3f:11:41:c5:
         91:7a:17:c1:f3:c9:ee:df:6f:72:8d:2f:be:d2:b2:fb:b1:d1:
         8b:e5:99:17:39:19:bf:e1:2f:5c:9c:25:8b:05:72:84:a3:6b:
         d2:b5:f8:36
-----BEGIN CERTIFICATE-----
MIIDSjCCAjKgAwIBAgIEGZmZpDANBgkqhkiG9w0BAQsFADAnMSUwIwYDVQQDFBxT
Uks0X3NoYTI1Nl8yMDQ4XzY1NTM3X3YzX2NhMB4XDTE5MTEyMDEwNDE0MloXDTI5
MTExNzEwNDE0MlowKjEoMCYGA1UEAxQfSU1HNF8xX3NoYTI1Nl8yMDQ4XzY1NTM3
X3YzX3VzcjCCASIwDQYJKoZIhvcNAQEBBQADggEPADCCAQoCggEBAKyEkdLv37lD
2TTj9Na61gq8zFgFeQTe1QhJkQbVaaQMQfq14JqHSUyfeI0Np5SaJbKfFS8bnoa6
Jfj7dUmAiXPTXOkMjqaxzZ/Gfq2iXoJBDu6biMvfCVtVrdD9GCnP1CCELfv1/oOx
6GTfwTzT8NP8Li7eo4GuS8QzMcaY1KqmBmgxOhwNdZj/J6Zr38hueQkiDpex+hSP
IKv9BDCezka+bnNjLTCUm2xrKcUmzPXpGEKSEcuweMFJjNNyjUuWLL9y5m7xmEBO
YUnKymLGxN2O6chxg2eoKqobn1AOCGKPeG/3KXLv/Z3/e+8/Q7vLTrw4rnNEvKsY
Pske8VlEWLMCAwEAAaN7MHkwCQYDVR0TBAIwADAsBglghkgBhvhCAQ0EHxYdT3Bl
blNTTCBHZW5lcmF0ZWQgQ2VydGlmaWNhdGUwHQYDVR0OBBYEFB2ebEE6wJ82BEFQ
gDuvMooT70BOMB8GA1UdIwQYMBaAFCZDQe3QGIs8mGCvwdf8Qoo3xCdPMA0GCSqG
SIb3DQEBCwUAA4IBAQBcIHQFaItAkmdOg0/OI+7UFMT9cjb90FZh7l2eZFKrjeMV
Zosweq7DBIqyfmL+ddY6IVzRJABGjRNtth3rva5vOOs9j1a24/FPzP4Rg3N7oPPy
/RJAu7JoFWbCkrUDjyEs02blrkiDpCaxjD5g+B/SUMPh2GYQ66/kdHP8KB9fyoF1
zeGcIJmlYjJUIX3LFuPulKTlq7Tqqm96KDyv6yB8sebtJDV5cGdCvEk2yp97QKSP
NofOoPNlMjcCJiocPmSGAj4PEM2IO5+TeBDZi6FLcEhokj8RQcWRehfB88nu329y
jS++0rL7sdGL5ZkXORm/4S9cnCWLBXKEo2vStfg2
-----END CERTIFICATE-----
