Certificate:
    Data:
        Version: 3 (0x2)
        Serial Number: 429496729 (0x19999999)
    Signature Algorithm: sha256WithRSAEncryption
        Issuer: CN=CA1_sha256_2048_65537_v3_ca
        Validity
            Not Before: Nov 20 10:41:32 2019 GMT
            Not After : Nov 17 10:41:32 2029 GMT
        Subject: CN=SRK1_sha256_2048_65537_v3_ca
        Subject Public Key Info:
            Public Key Algorithm: rsaEncryption
                Public-Key: (2048 bit)
                Modulus:
                    00:ae:d5:6b:4c:0e:fb:e0:f9:1a:bd:5b:c6:2d:b7:
                    da:0b:93:77:1d:ef:ca:a4:df:38:60:a2:b5:4e:15:
                    7e:0c:e4:76:58:4b:e1:4c:ea:0d:e9:3f:9c:28:15:
                    f2:3c:4a:c9:9d:06:fa:8f:67:57:b2:b0:ca:f5:b8:
                    d1:9d:32:56:3e:31:c3:fd:78:60:a5:a6:5f:c6:e6:
                    3c:d6:7a:fc:97:6b:52:23:30:5e:5e:1d:95:ac:b7:
                    68:0b:bd:56:09:0f:34:67:01:50:d8:c0:fd:18:94:
                    a7:4c:37:6f:e0:6a:69:45:06:ae:74:76:fc:c5:d5:
                    f7:af:30:4b:98:30:1a:c5:7e:f3:e1:af:48:24:04:
                    50:62:5c:94:46:38:d9:30:17:4d:2c:97:78:46:20:
                    0b:d9:98:13:cb:fc:d5:c5:17:3b:ba:1d:13:be:7e:
                    bb:75:0a:0c:50:b9:08:5c:3c:04:5d:82:7a:09:30:
                    97:de:ad:81:2d:14:77:e0:9e:d7:96:d8:62:0a:f5:
                    e5:b5:49:c2:b9:68:86:c0:aa:36:05:9f:ed:bc:34:
                    f9:47:6b:28:74:8a:70:1e:0e:99:1c:7a:26:d5:21:
                    a0:d9:a8:f8:63:85:1d:c8:82:1a:0a:01:6f:ac:c4:
                    a3:68:78:26:3b:65:f0:d6:ca:9b:a8:af:81:39:84:
                    22:11
                Exponent: 65537 (0x10001)
        X509v3 extensions:
            X509v3 Subject Key Identifier: 
                B8:5D:92:D5:64:F7:27:79:AB:2A:A6:23:9F:27:0A:BD:4C:93:54:D7
            X509v3 Authority Key Identifier: 
                keyid:85:86:70:F5:71:6E:12:87:77:EF:83:A7:C8:FD:62:FA:27:6C:F1:60
                DirName:/CN=CA1_sha256_2048_65537_v3_ca
                serial:84:F9:2D:C0:83:D6:64:7E

            X509v3 Basic Constraints: critical
                CA:TRUE
            X509v3 Key Usage: 
                Certificate Sign
    Signature Algorithm: sha256WithRSAEncryption
         76:2a:0d:65:ab:0e:bd:18:0d:83:2a:94:19:9e:7c:a4:d8:f2:
         1f:62:06:9d:fb:b5:1f:7a:d6:69:64:d2:be:b0:8e:d7:30:a1:
         d9:51:66:3e:04:1f:4f:55:85:51:1e:21:a1:0b:c8:df:f8:2e:
         fd:d2:61:e2:bf:3c:c0:8d:13:df:3b:27:5f:03:86:a1:76:8b:
         87:d7:ee:0e:d1:fd:ab:43:ff:0c:94:51:79:08:ec:0d:f5:be:
         a6:3b:fb:da:2e:5e:d2:eb:b8:92:e7:73:ac:18:fe:94:da:0a:
         37:07:0a:01:fe:d3:1f:da:37:b8:72:80:95:de:46:59:24:52:
         56:22:06:ff:33:5c:0e:bc:69:5c:a5:71:11:0e:9a:aa:54:d2:
         b2:5e:95:64:82:7c:4b:6f:89:34:00:bb:47:ee:82:bb:d7:c1:
         ac:1a:f0:5e:59:80:5e:f0:94:00:ef:2d:c3:ee:9f:5b:4c:65:
         82:00:fb:ea:24:fe:f7:39:31:e0:00:73:e0:7c:b5:cc:3f:0c:
         e7:a8:e7:da:3c:7f:ba:15:9d:09:d7:db:a7:97:73:fd:9a:ec:
         8b:38:f0:4b:44:10:3d:5f:3d:b2:61:b4:d4:49:22:16:de:84:
         78:46:1b:ea:0d:c4:1a:6f:d8:a4:69:f1:0a:22:4e:ea:2c:ed:
         6c:7c:6b:6c
-----BEGIN CERTIFICATE-----
MIIDZDCCAkygAwIBAgIEGZmZmTANBgkqhkiG9w0BAQsFADAmMSQwIgYDVQQDFBtD
QTFfc2hhMjU2XzIwNDhfNjU1MzdfdjNfY2EwHhcNMTkxMTIwMTA0MTMyWhcNMjkx
MTE3MTA0MTMyWjAnMSUwIwYDVQQDFBxTUksxX3NoYTI1Nl8yMDQ4XzY1NTM3X3Yz
X2NhMIIBIjANBgkqhkiG9w0BAQEFAAOCAQ8AMIIBCgKCAQEArtVrTA774PkavVvG
LbfaC5N3He/KpN84YKK1ThV+DOR2WEvhTOoN6T+cKBXyPErJnQb6j2dXsrDK9bjR
nTJWPjHD/XhgpaZfxuY81nr8l2tSIzBeXh2VrLdoC71WCQ80ZwFQ2MD9GJSnTDdv
4GppRQaudHb8xdX3rzBLmDAaxX7z4a9IJARQYlyURjjZMBdNLJd4RiAL2ZgTy/zV
xRc7uh0Tvn67dQoMULkIXDwEXYJ6CTCX3q2BLRR34J7XlthiCvXltUnCuWiGwKo2
BZ/tvDT5R2sodIpwHg6ZHHom1SGg2aj4Y4UdyIIaCgFvrMSjaHgmO2Xw1sqbqK+B
OYQiEQIDAQABo4GYMIGVMB0GA1UdDgQWBBS4XZLVZPcneasqpiOfJwq9TJNU1zBW
BgNVHSMETzBNgBSFhnD1cW4Sh3fvg6fI/WL6J2zxYKEqpCgwJjEkMCIGA1UEAxQb
Q0ExX3NoYTI1Nl8yMDQ4XzY1NTM3X3YzX2NhggkAhPktwIPWZH4wDwYDVR0TAQH/
BAUwAwEB/zALBgNVHQ8EBAMCAgQwDQYJKoZIhvcNAQELBQADggEBAHYqDWWrDr0Y
DYMqlBmefKTY8h9iBp37tR961mlk0r6wjtcwodlRZj4EH09VhVEeIaELyN/4Lv3S
YeK/PMCNE987J18DhqF2i4fX7g7R/atD/wyUUXkI7A31vqY7+9ouXtLruJLnc6wY
/pTaCjcHCgH+0x/aN7hygJXeRlkkUlYiBv8zXA68aVylcREOmqpU0rJelWSCfEtv
iTQAu0fugrvXwawa8F5ZgF7wlADvLcPun1tMZYIA++ok/vc5MeAAc+B8tcw/DOeo
59o8f7oVnQnX26eXc/2a7Is48EtEED1fPbJhtNRJIhbehHhGG+oNxBpv2KRp8Qoi
Tuos7Wx8a2w=
-----END CERTIFICATE-----
