Certificate:
    Data:
        Version: 3 (0x2)
        Serial Number: 429496732 (0x1999999c)
    Signature Algorithm: sha256WithRSAEncryption
        Issuer: CN=CA1_sha256_2048_65537_v3_ca
        Validity
            Not Before: Nov 20 10:41:35 2019 GMT
            Not After : Nov 17 10:41:35 2029 GMT
        Subject: CN=SRK2_sha256_2048_65537_v3_ca
        Subject Public Key Info:
            Public Key Algorithm: rsaEncryption
                Public-Key: (2048 bit)
                Modulus:
                    00:b2:0a:ee:cc:fc:91:ff:ba:64:a2:54:44:13:0c:
                    53:70:5a:ef:20:7b:19:75:20:10:0a:1c:89:cd:36:
                    bd:e2:e9:a7:ee:85:44:4e:95:46:77:20:f3:34:53:
                    c8:28:21:51:7a:69:cf:11:53:e3:9a:26:ce:8d:f5:
                    f0:30:68:88:32:f5:20:de:94:17:de:06:e8:4f:75:
                    8b:a9:68:1b:b5:c9:83:4b:73:60:dc:a0:42:5e:29:
                    43:95:e3:2d:ca:72:75:7c:ed:2c:2f:e3:cd:48:e8:
                    95:47:e2:60:3e:b3:b8:31:3f:43:24:fd:b7:1a:75:
                    53:52:e1:14:59:fa:ed:49:46:f9:a1:72:a6:24:fc:
                    bd:57:d1:4a:7f:19:7b:ab:09:3b:0e:95:6b:c1:60:
                    23:9a:d9:f3:58:3b:e5:4c:ad:65:a0:9e:93:fb:45:
                    88:35:f9:af:ed:cb:55:86:95:9f:a5:22:46:d0:cc:
                    6e:dd:60:99:f4:27:94:af:64:1b:24:d6:be:cb:c2:
                    0c:95:e9:80:da:20:a4:51:1c:15:b9:fe:e5:b9:f1:
                    cd:ae:92:53:0d:a7:12:d5:32:d2:aa:7c:13:5f:3a:
                    74:e9:17:da:f3:78:9d:2d:f9:13:ca:58:83:11:d5:
                    bf:84:44:46:e5:ab:85:5e:95:6a:a0:96:04:cd:00:
                    93:6b
                Exponent: 65537 (0x10001)
        X509v3 extensions:
            X509v3 Subject Key Identifier: 
                F1:C2:DC:18:36:5E:AB:59:2D:2F:ED:C5:58:D4:2C:FE:38:29:12:EF
            X509v3 Authority Key Identifier: 
                keyid:85:86:70:F5:71:6E:12:87:77:EF:83:A7:C8:FD:62:FA:27:6C:F1:60
                DirName:/CN=CA1_sha256_2048_65537_v3_ca
                serial:84:F9:2D:C0:83:D6:64:7E

            X509v3 Basic Constraints: critical
                CA:TRUE
            X509v3 Key Usage: 
                Certificate Sign
    Signature Algorithm: sha256WithRSAEncryption
         b3:20:c2:27:67:28:43:02:a6:1b:56:c8:68:e2:1b:05:af:bd:
         a5:34:08:9f:4f:fe:f6:37:75:3b:ea:6c:18:46:e5:1c:c7:90:
         51:b6:87:a6:e9:50:5f:19:e5:65:4c:38:7b:0c:e4:3e:75:d5:
         ea:16:d9:45:bf:41:bf:9f:6e:d4:ca:d2:8e:aa:bb:c6:49:87:
         a7:05:44:e3:38:6a:fd:af:5e:b1:a7:92:db:d6:02:6c:77:b6:
         5b:1b:9b:91:c8:cc:e2:88:72:99:ce:d6:45:92:19:e0:fe:c0:
         51:30:b0:19:f1:79:bb:c3:af:cb:f5:ee:f5:e7:d4:de:51:34:
         15:1a:5e:e4:95:11:d9:db:34:43:3b:a8:fa:cd:9a:31:c5:1b:
         ab:9c:70:a0:05:ae:af:52:a9:e3:e5:72:66:31:5a:21:7e:04:
         4d:05:b8:6a:97:94:c2:02:5c:8e:77:1b:05:d9:53:fe:a2:f3:
         20:32:74:ed:4a:a3:52:fb:57:96:b0:29:7a:87:f5:51:a5:9d:
         90:d7:e6:34:14:7d:dd:e9:fe:ea:d7:0e:1a:0f:4e:7e:31:28:
         c8:85:dd:5e:7a:7f:1b:5a:98:d4:f0:d1:c2:8e:37:45:ff:b1:
         a2:92:f6:d6:f5:c3:36:1d:38:22:ef:3e:45:a7:6d:76:7f:f7:
         3b:99:01:bc
-----BEGIN CERTIFICATE-----
MIIDZDCCAkygAwIBAgIEGZmZnDANBgkqhkiG9w0BAQsFADAmMSQwIgYDVQQDFBtD
QTFfc2hhMjU2XzIwNDhfNjU1MzdfdjNfY2EwHhcNMTkxMTIwMTA0MTM1WhcNMjkx
MTE3MTA0MTM1WjAnMSUwIwYDVQQDFBxTUksyX3NoYTI1Nl8yMDQ4XzY1NTM3X3Yz
X2NhMIIBIjANBgkqhkiG9w0BAQEFAAOCAQ8AMIIBCgKCAQEAsgruzPyR/7pkolRE
EwxTcFrvIHsZdSAQChyJzTa94umn7oVETpVGdyDzNFPIKCFRemnPEVPjmibOjfXw
MGiIMvUg3pQX3gboT3WLqWgbtcmDS3Ng3KBCXilDleMtynJ1fO0sL+PNSOiVR+Jg
PrO4MT9DJP23GnVTUuEUWfrtSUb5oXKmJPy9V9FKfxl7qwk7DpVrwWAjmtnzWDvl
TK1loJ6T+0WINfmv7ctVhpWfpSJG0Mxu3WCZ9CeUr2QbJNa+y8IMlemA2iCkURwV
uf7lufHNrpJTDacS1TLSqnwTXzp06Rfa83idLfkTyliDEdW/hERG5auFXpVqoJYE
zQCTawIDAQABo4GYMIGVMB0GA1UdDgQWBBTxwtwYNl6rWS0v7cVY1Cz+OCkS7zBW
BgNVHSMETzBNgBSFhnD1cW4Sh3fvg6fI/WL6J2zxYKEqpCgwJjEkMCIGA1UEAxQb
Q0ExX3NoYTI1Nl8yMDQ4XzY1NTM3X3YzX2NhggkAhPktwIPWZH4wDwYDVR0TAQH/
BAUwAwEB/zALBgNVHQ8EBAMCAgQwDQYJKoZIhvcNAQELBQADggEBALMgwidnKEMC
phtWyGjiGwWvvaU0CJ9P/vY3dTvqbBhG5RzHkFG2h6bpUF8Z5WVMOHsM5D511eoW
2UW/Qb+fbtTK0o6qu8ZJh6cFROM4av2vXrGnktvWAmx3tlsbm5HIzOKIcpnO1kWS
GeD+wFEwsBnxebvDr8v17vXn1N5RNBUaXuSVEdnbNEM7qPrNmjHFG6uccKAFrq9S
qePlcmYxWiF+BE0FuGqXlMICXI53GwXZU/6i8yAydO1Ko1L7V5awKXqH9VGlnZDX
5jQUfd3p/urXDhoPTn4xKMiF3V56fxtamNTw0cKON0X/saKS9tb1wzYdOCLvPkWn
bXZ/9zuZAbw=
-----END CERTIFICATE-----
