Certificate:
    Data:
        Version: 3 (0x2)
        Serial Number: 429496735 (0x1999999f)
    Signature Algorithm: sha256WithRSAEncryption
        Issuer: CN=CA1_sha256_2048_65537_v3_ca
        Validity
            Not Before: Nov 20 10:41:38 2019 GMT
            Not After : Nov 17 10:41:38 2029 GMT
        Subject: CN=SRK3_sha256_2048_65537_v3_ca
        Subject Public Key Info:
            Public Key Algorithm: rsaEncryption
                Public-Key: (2048 bit)
                Modulus:
                    00:c1:9a:db:d8:2f:59:c2:27:f9:96:68:ba:6a:dd:
                    21:80:59:f4:d1:c1:6d:04:bf:b3:f8:aa:d4:2a:1d:
                    1f:6d:a4:29:9b:92:e4:b4:c0:61:4a:84:0c:59:25:
                    2e:a0:cd:26:66:9e:13:09:ce:46:c0:8e:0b:c2:23:
                    06:7d:37:69:00:28:50:43:01:a7:f1:dc:47:19:06:
                    c7:ec:8a:58:1e:f4:90:d7:de:27:48:de:cc:76:b4:
                    c2:35:11:9e:d0:8c:c8:9d:ee:0f:13:bf:4d:e4:a1:
                    0e:53:7c:4f:f2:70:66:90:a1:d0:70:29:e1:c0:9b:
                    22:e2:bd:09:67:56:03:3d:4a:8e:ac:05:96:72:03:
                    98:3e:45:65:85:da:f2:94:83:95:c2:df:00:33:ef:
                    ec:57:c3:ac:cd:f2:a2:b5:da:b0:cd:13:f2:71:e0:
                    7c:37:a7:08:b4:fb:70:21:e6:31:9d:00:e1:fb:39:
                    b1:e3:b5:0c:a1:58:87:24:59:bf:8d:9f:62:cc:c5:
                    b2:d1:df:fa:1e:fd:aa:da:36:32:9c:89:55:e4:65:
                    e2:72:87:c5:ad:50:53:80:73:0a:31:7c:dd:26:59:
                    1f:fe:45:87:d4:cd:b1:b0:95:aa:b4:1c:e5:e6:a8:
                    6f:78:48:56:f5:cc:1b:d2:53:1f:3f:d9:cb:4d:97:
                    53:53
                Exponent: 65537 (0x10001)
        X509v3 extensions:
            X509v3 Subject Key Identifier: 
                6A:1B:F1:01:13:3A:73:E9:C2:3B:A7:23:C8:9D:14:49:75:50:16:03
            X509v3 Authority Key Identifier: 
                keyid:85:86:70:F5:71:6E:12:87:77:EF:83:A7:C8:FD:62:FA:27:6C:F1:60
                DirName:/CN=CA1_sha256_2048_65537_v3_ca
                serial:84:F9:2D:C0:83:D6:64:7E

            X509v3 Basic Constraints: critical
                CA:TRUE
            X509v3 Key Usage: 
                Certificate Sign
    Signature Algorithm: sha256WithRSAEncryption
         47:30:f8:ba:cb:de:ef:d1:3f:ba:14:cc:3b:4f:32:bd:d4:9a:
         0b:dd:fe:40:dc:18:78:d4:bb:e4:e5:5d:c9:b7:c8:99:90:54:
         54:f7:44:99:e6:97:66:79:0d:29:ea:6a:ef:b0:6d:05:76:06:
         6e:44:1e:35:2a:45:d1:22:83:8a:9b:26:82:26:c4:34:06:15:
         45:e8:0f:79:d4:bb:06:f8:70:b1:fa:21:21:3c:f8:1d:4b:48:
         95:42:cf:33:6a:34:b8:58:60:17:f6:d5:79:90:29:58:1c:64:
         f5:1a:9a:78:1c:77:bb:94:23:76:4c:5c:79:0b:76:0d:e8:5e:
         66:2a:e9:3c:15:bb:cb:fd:4b:e6:bb:11:b4:37:e9:4d:09:5b:
         e3:ad:c6:1c:1f:d7:ba:8b:29:d5:88:a8:bb:80:ad:c8:58:bd:
         fd:ee:8c:06:b4:60:6d:31:c9:4c:52:0d:63:7b:7f:54:ee:48:
         b8:64:33:03:29:d5:72:49:84:d1:67:11:a8:97:0b:c0:ae:f6:
         11:91:33:b1:4e:01:a9:3e:23:40:a1:6d:df:ff:32:28:99:38:
         4c:78:c3:b2:b9:81:77:31:75:4b:8b:e3:36:65:28:9b:f4:27:
         73:b0:04:2a:a5:1d:8c:e7:a7:75:4e:ba:fc:24:a9:c7:a8:23:
         f7:1e:70:a9
-----BEGIN CERTIFICATE-----
MIIDZDCCAkygAwIBAgIEGZmZnzANBgkqhkiG9w0BAQsFADAmMSQwIgYDVQQDFBtD
QTFfc2hhMjU2XzIwNDhfNjU1MzdfdjNfY2EwHhcNMTkxMTIwMTA0MTM4WhcNMjkx
MTE3MTA0MTM4WjAnMSUwIwYDVQQDFBxTUkszX3NoYTI1Nl8yMDQ4XzY1NTM3X3Yz
X2NhMIIBIjANBgkqhkiG9w0BAQEFAAOCAQ8AMIIBCgKCAQEAwZrb2C9Zwif5lmi6
at0hgFn00cFtBL+z+KrUKh0fbaQpm5LktMBhSoQMWSUuoM0mZp4TCc5GwI4LwiMG
fTdpAChQQwGn8dxHGQbH7IpYHvSQ194nSN7MdrTCNRGe0IzIne4PE79N5KEOU3xP
8nBmkKHQcCnhwJsi4r0JZ1YDPUqOrAWWcgOYPkVlhdrylIOVwt8AM+/sV8OszfKi
tdqwzRPyceB8N6cItPtwIeYxnQDh+zmx47UMoViHJFm/jZ9izMWy0d/6Hv2q2jYy
nIlV5GXicofFrVBTgHMKMXzdJlkf/kWH1M2xsJWqtBzl5qhveEhW9cwb0lMfP9nL
TZdTUwIDAQABo4GYMIGVMB0GA1UdDgQWBBRqG/EBEzpz6cI7pyPInRRJdVAWAzBW
BgNVHSMETzBNgBSFhnD1cW4Sh3fvg6fI/WL6J2zxYKEqpCgwJjEkMCIGA1UEAxQb
Q0ExX3NoYTI1Nl8yMDQ4XzY1NTM3X3YzX2NhggkAhPktwIPWZH4wDwYDVR0TAQH/
BAUwAwEB/zALBgNVHQ8EBAMCAgQwDQYJKoZIhvcNAQELBQADggEBAEcw+LrL3u/R
P7oUzDtPMr3Umgvd/kDcGHjUu+TlXcm3yJmQVFT3RJnml2Z5DSnqau+wbQV2Bm5E
HjUqRdEig4qbJoImxDQGFUXoD3nUuwb4cLH6ISE8+B1LSJVCzzNqNLhYYBf21XmQ
KVgcZPUamngcd7uUI3ZMXHkLdg3oXmYq6TwVu8v9S+a7EbQ36U0JW+Otxhwf17qL
KdWIqLuArchYvf3ujAa0YG0xyUxSDWN7f1TuSLhkMwMp1XJJhNFnEaiXC8Cu9hGR
M7FOAak+I0Chbd//MiiZOEx4w7K5gXcxdUuL4zZlKJv0J3OwBCqlHYznp3VOuvwk
qceoI/cecKk=
-----END CERTIFICATE-----
