Certificate:
    Data:
        Version: 3 (0x2)
        Serial Number: 429496738 (0x199999a2)
    Signature Algorithm: sha256WithRSAEncryption
        Issuer: CN=CA1_sha256_2048_65537_v3_ca
        Validity
            Not Before: Nov 20 10:41:40 2019 GMT
            Not After : Nov 17 10:41:40 2029 GMT
        Subject: CN=SRK4_sha256_2048_65537_v3_ca
        Subject Public Key Info:
            Public Key Algorithm: rsaEncryption
                Public-Key: (2048 bit)
                Modulus:
                    00:c2:53:f6:79:c4:8d:8a:71:0b:0b:57:6f:f7:3c:
                    ec:3a:a0:11:bf:b9:a5:a7:69:28:c5:ee:eb:6b:5f:
                    26:c5:a6:af:66:f4:bf:ad:a4:dc:28:5b:7d:3a:3b:
                    80:f3:1b:9c:f0:93:66:79:0b:c6:ae:99:85:93:97:
                    c5:c5:07:0f:34:be:1a:7b:60:68:58:58:e2:c4:00:
                    ae:c0:a2:81:21:a4:b8:b9:22:33:bf:98:75:ad:be:
                    6b:5e:67:ab:7c:54:9d:c8:ac:9f:74:ba:a3:6a:80:
                    f3:dc:1f:0a:27:f9:e0:97:99:af:23:6b:d8:e9:4b:
                    1e:04:4c:5b:51:a1:f5:2a:21:73:5e:c9:c7:fd:5a:
                    eb:88:32:8a:2d:55:0f:72:a5:b7:4e:73:3d:f8:16:
                    97:fe:b2:a7:ea:26:bd:c2:58:14:9d:a0:3a:bf:5b:
                    ca:48:0f:1d:36:fe:0b:d9:e8:01:c7:8b:75:b8:97:
                    04:7e:c1:78:8f:93:8e:01:24:ae:db:f9:1c:e5:bb:
                    eb:2f:bc:25:e5:8d:98:8e:4c:8d:27:06:71:2e:fb:
                    47:2b:b7:82:91:b7:50:68:9d:24:f6:0c:85:db:b7:
                    68:c0:18:02:c7:6c:79:14:af:bc:17:68:98:86:c5:
                    53:3f:01:1a:e8:38:54:84:5e:24:d0:af:3e:a5:36:
                    a0:df
                Exponent: 65537 (0x10001)
        X509v3 extensions:
            X509v3 Subject Key Identifier: 
                26:43:41:ED:D0:18:8B:3C:98:60:AF:C1:D7:FC:42:8A:37:C4:27:4F
            X509v3 Authority Key Identifier: 
                keyid:85:86:70:F5:71:6E:12:87:77:EF:83:A7:C8:FD:62:FA:27:6C:F1:60
                DirName:/CN=CA1_sha256_2048_65537_v3_ca
                serial:84:F9:2D:C0:83:D6:64:7E

            X509v3 Basic Constraints: critical
                CA:TRUE
            X509v3 Key Usage: 
                Certificate Sign
    Signature Algorithm: sha256WithRSAEncryption
         6c:c3:98:7b:65:64:27:9f:97:81:83:0a:14:58:f7:9d:30:4d:
         82:72:e7:9c:1b:63:93:19:62:19:cf:f3:3a:fc:f0:6d:0e:2a:
         53:08:64:7d:ec:3f:1f:55:f9:b9:96:c8:11:79:0d:2a:df:79:
         a4:63:5f:1f:07:59:5e:c2:e5:2a:09:f0:7f:41:de:b0:55:a2:
         3e:b0:34:27:8e:6c:89:b9:45:12:96:97:1c:aa:c3:c7:b3:bc:
         f0:04:15:51:b4:c6:a7:8b:90:9d:06:cf:4d:69:56:ec:04:75:
         94:7c:15:7a:7a:c8:d0:40:ed:87:de:a9:4b:3d:4f:f5:59:15:
         e0:42:8b:a3:76:26:29:15:ac:34:3b:c6:92:8c:5a:d1:ff:d4:
         20:8f:c8:9d:3a:25:c1:6a:46:ea:76:03:f3:4c:54:de:e8:15:
         26:dc:1a:ee:44:48:04:85:60:55:af:f9:c3:43:ea:7d:e1:a4:
         ab:20:8c:76:5e:f2:2a:97:8b:d8:b6:7b:67:e9:83:65:14:35:
         f1:07:77:26:04:cd:18:e2:df:59:f2:4f:40:bc:12:75:0f:79:
         bd:b6:f9:ce:cc:59:dc:41:c9:58:c8:ca:00:50:57:c2:bd:6f:
         9c:d1:7d:7a:99:93:c8:bc:6e:d3:e2:35:89:70:3c:77:3c:c0:
         19:2b:ed:bd
-----BEGIN CERTIFICATE-----
MIIDZDCCAkygAwIBAgIEGZmZojANBgkqhkiG9w0BAQsFADAmMSQwIgYDVQQDFBtD
QTFfc2hhMjU2XzIwNDhfNjU1MzdfdjNfY2EwHhcNMTkxMTIwMTA0MTQwWhcNMjkx
MTE3MTA0MTQwWjAnMSUwIwYDVQQDFBxTUks0X3NoYTI1Nl8yMDQ4XzY1NTM3X3Yz
X2NhMIIBIjANBgkqhkiG9w0BAQEFAAOCAQ8AMIIBCgKCAQEAwlP2ecSNinELC1dv
9zzsOqARv7mlp2koxe7ra18mxaavZvS/raTcKFt9OjuA8xuc8JNmeQvGrpmFk5fF
xQcPNL4ae2BoWFjixACuwKKBIaS4uSIzv5h1rb5rXmerfFSdyKyfdLqjaoDz3B8K
J/ngl5mvI2vY6UseBExbUaH1KiFzXsnH/VrriDKKLVUPcqW3TnM9+BaX/rKn6ia9
wlgUnaA6v1vKSA8dNv4L2egBx4t1uJcEfsF4j5OOASSu2/kc5bvrL7wl5Y2YjkyN
JwZxLvtHK7eCkbdQaJ0k9gyF27dowBgCx2x5FK+8F2iYhsVTPwEa6DhUhF4k0K8+
pTag3wIDAQABo4GYMIGVMB0GA1UdDgQWBBQmQ0Ht0BiLPJhgr8HX/EKKN8QnTzBW
BgNVHSMETzBNgBSFhnD1cW4Sh3fvg6fI/WL6J2zxYKEqpCgwJjEkMCIGA1UEAxQb
Q0ExX3NoYTI1Nl8yMDQ4XzY1NTM3X3YzX2NhggkAhPktwIPWZH4wDwYDVR0TAQH/
BAUwAwEB/zALBgNVHQ8EBAMCAgQwDQYJKoZIhvcNAQELBQADggEBAGzDmHtlZCef
l4GDChRY950wTYJy55wbY5MZYhnP8zr88G0OKlMIZH3sPx9V+bmWyBF5DSrfeaRj
Xx8HWV7C5SoJ8H9B3rBVoj6wNCeObIm5RRKWlxyqw8ezvPAEFVG0xqeLkJ0Gz01p
VuwEdZR8FXp6yNBA7YfeqUs9T/VZFeBCi6N2JikVrDQ7xpKMWtH/1CCPyJ06JcFq
Rup2A/NMVN7oFSbcGu5ESASFYFWv+cND6n3hpKsgjHZe8iqXi9i2e2fpg2UUNfEH
dyYEzRji31nyT0C8EnUPeb22+c7MWdxByVjIygBQV8K9b5zRfXqZk8i8btPiNYlw
PHc8wBkr7b0=
-----END CERTIFICATE-----
