Certificate:
    Data:
        Version: 3 (0x2)
        Serial Number: 305419908 (0x12345684)
        Signature Algorithm: ecdsa-with-SHA256
        Issuer: CN=CA1_sha256_secp384r1_v3_ca
        Validity
            Not Before: Aug 25 12:59:29 2023 GMT
            Not After : Aug 22 12:59:29 2033 GMT
        Subject: CN=SRK1_sha256_secp384r1_v3_ca
        Subject Public Key Info:
            Public Key Algorithm: id-ecPublicKey
                Public-Key: (384 bit)
                pub:
                    04:17:d0:e7:3d:e6:8b:30:6b:1e:ca:95:3e:d6:d3:
                    03:80:bf:94:64:d8:31:eb:19:44:07:fd:76:94:ef:
                    4c:99:b9:19:33:82:e4:b4:e8:f7:c5:b4:cf:e4:8b:
                    8b:59:f5:3f:af:f7:59:c5:b6:e6:ee:d3:3d:c1:8c:
                    70:e7:ba:87:99:1b:fb:f0:e8:3d:fe:00:b1:f8:28:
                    fe:73:43:ba:9b:14:22:30:ed:ba:c7:9f:b2:17:fd:
                    14:23:40:fd:38:5b:fe
                ASN1 OID: secp384r1
                NIST CURVE: P-384
        X509v3 extensions:
            X509v3 Subject Key Identifier: 
                5E:06:B3:70:A2:2D:09:2A:B2:9D:39:C0:EE:BF:79:74:16:B4:66:95
            X509v3 Authority Key Identifier: 
                keyid:25:30:A0:98:1F:6E:16:3E:AC:E5:28:0E:C7:FB:0B:8F:27:55:64:80
                DirName:/CN=CA1_sha256_secp384r1_v3_ca
                serial:6F:3D:C3:54:D6:A4:1E:F0:59:87:9B:09:F9:8A:0E:59:7F:E9:FA:01

            X509v3 Basic Constraints: critical
                CA:TRUE
            X509v3 Key Usage: 
                Certificate Sign
    Signature Algorithm: ecdsa-with-SHA256
         30:65:02:31:00:ba:12:44:16:ef:4d:08:2f:96:04:94:0a:0e:
         8a:8e:a4:84:b1:20:c0:1d:82:e2:b9:9a:18:5c:9e:59:49:fc:
         b8:dd:ae:92:83:63:a7:16:57:60:64:b2:87:07:fa:2a:43:02:
         30:30:58:ba:9d:32:b2:7a:1c:2f:6f:9c:e5:6a:96:0f:74:d5:
         57:75:35:aa:38:62:76:40:50:2d:b7:5a:f9:01:6c:7e:c2:55:
         4f:aa:74:cc:1f:d2:58:28:b3:b8:dd:28:8a
-----BEGIN CERTIFICATE-----
MIICHTCCAaOgAwIBAgIEEjRWhDAKBggqhkjOPQQDAjAlMSMwIQYDVQQDFBpDQTFf
c2hhMjU2X3NlY3AzODRyMV92M19jYTAeFw0yMzA4MjUxMjU5MjlaFw0zMzA4MjIx
MjU5MjlaMCYxJDAiBgNVBAMUG1NSSzFfc2hhMjU2X3NlY3AzODRyMV92M19jYTB2
MBAGByqGSM49AgEGBSuBBAAiA2IABBfQ5z3mizBrHsqVPtbTA4C/lGTYMesZRAf9
dpTvTJm5GTOC5LTo98W0z+SLi1n1P6/3WcW25u7TPcGMcOe6h5kb+/DoPf4Asfgo
/nNDupsUIjDtusefshf9FCNA/Thb/qOBojCBnzAdBgNVHQ4EFgQUXgazcKItCSqy
nTnA7r95dBa0ZpUwYAYDVR0jBFkwV4AUJTCgmB9uFj6s5SgOx/sLjydVZIChKaQn
MCUxIzAhBgNVBAMUGkNBMV9zaGEyNTZfc2VjcDM4NHIxX3YzX2NhghRvPcNU1qQe
8FmHmwn5ig5Zf+n6ATAPBgNVHRMBAf8EBTADAQH/MAsGA1UdDwQEAwICBDAKBggq
hkjOPQQDAgNoADBlAjEAuhJEFu9NCC+WBJQKDoqOpISxIMAdguK5mhhcnllJ/Ljd
rpKDY6cWV2BksocH+ipDAjAwWLqdMrJ6HC9vnOVqlg901Vd1Nao4YnZAUC23WvkB
bH7CVU+qdMwf0lgos7jdKIo=
-----END CERTIFICATE-----
