Certificate:
    Data:
        Version: 3 (0x2)
        Serial Number: 305419899 (0x1234567b)
        Signature Algorithm: ecdsa-with-SHA256
        Issuer: CN=CA1_sha256_secp384r1_v3_ca
        Validity
            Not Before: Aug 25 10:42:26 2023 GMT
            Not After : Aug 22 10:42:26 2033 GMT
        Subject: CN=SRK2_sha256_secp384r1_v3_ca
        Subject Public Key Info:
            Public Key Algorithm: id-ecPublicKey
                Public-Key: (384 bit)
                pub:
                    04:28:aa:b0:30:36:73:cd:50:9e:e2:3f:aa:d1:1f:
                    95:0d:13:fb:c6:a3:17:f1:e5:68:a4:fd:d3:08:c5:
                    e5:35:2b:84:0e:17:13:04:6e:db:ed:b3:1f:11:d2:
                    3f:04:68:b0:8f:f1:4d:cf:d0:64:ff:22:69:25:cb:
                    5c:7f:d6:3c:5f:3d:dc:5b:d3:25:16:cf:0c:9a:96:
                    66:f7:38:ce:9d:8d:b5:cc:71:b7:b2:ec:ff:be:e9:
                    2c:dd:06:80:20:6e:53
                ASN1 OID: secp384r1
                NIST CURVE: P-384
        X509v3 extensions:
            X509v3 Subject Key Identifier: 
                20:4A:14:F8:61:3A:EC:DE:B6:8E:3B:18:B5:4D:58:00:FE:19:03:8D
            X509v3 Authority Key Identifier: 
                keyid:37:CA:B2:F7:70:8B:A8:35:1A:64:44:E5:DB:C1:68:94:9B:A7:57:06
                DirName:/CN=CA1_sha256_secp384r1_v3_ca
                serial:5C:45:59:4D:69:72:76:A1:87:3F:77:37:6A:64:AA:7D:0A:3A:43:6A

            X509v3 Basic Constraints: critical
                CA:TRUE
            X509v3 Key Usage: 
                Certificate Sign
    Signature Algorithm: ecdsa-with-SHA256
         30:66:02:31:00:f5:7f:bf:32:c8:66:e7:15:1f:2e:ce:18:ab:
         6b:81:35:f8:c3:da:6e:80:91:7e:da:ae:e8:42:8d:e9:00:1e:
         2c:e7:70:b8:98:01:95:0d:42:73:b2:53:2b:a6:b8:0a:78:02:
         31:00:a3:46:a6:25:ac:01:39:26:93:5f:32:a0:1c:b6:63:20:
         29:c3:6d:62:dc:6e:30:a4:8a:47:ef:b2:79:1c:78:e5:ab:c0:
         bb:7b:b8:de:f4:da:fa:2d:e7:8f:87:f7:7a:bf
-----BEGIN CERTIFICATE-----
MIICHjCCAaOgAwIBAgIEEjRWezAKBggqhkjOPQQDAjAlMSMwIQYDVQQDFBpDQTFf
c2hhMjU2X3NlY3AzODRyMV92M19jYTAeFw0yMzA4MjUxMDQyMjZaFw0zMzA4MjIx
MDQyMjZaMCYxJDAiBgNVBAMUG1NSSzJfc2hhMjU2X3NlY3AzODRyMV92M19jYTB2
MBAGByqGSM49AgEGBSuBBAAiA2IABCiqsDA2c81QnuI/qtEflQ0T+8ajF/HlaKT9
0wjF5TUrhA4XEwRu2+2zHxHSPwRosI/xTc/QZP8iaSXLXH/WPF893FvTJRbPDJqW
Zvc4zp2Ntcxxt7Ls/77pLN0GgCBuU6OBojCBnzAdBgNVHQ4EFgQUIEoU+GE67N62
jjsYtU1YAP4ZA40wYAYDVR0jBFkwV4AUN8qy93CLqDUaZETl28FolJunVwahKaQn
MCUxIzAhBgNVBAMUGkNBMV9zaGEyNTZfc2VjcDM4NHIxX3YzX2NhghRcRVlNaXJ2
oYc/dzdqZKp9CjpDajAPBgNVHRMBAf8EBTADAQH/MAsGA1UdDwQEAwICBDAKBggq
hkjOPQQDAgNpADBmAjEA9X+/Mshm5xUfLs4Yq2uBNfjD2m6AkX7aruhCjekAHizn
cLiYAZUNQnOyUyumuAp4AjEAo0amJawBOSaTXzKgHLZjICnDbWLcbjCkikfvsnkc
eOWrwLt7uN702vot54+H93q/
-----END CERTIFICATE-----
