Certificate:
    Data:
        Version: 3 (0x2)
        Serial Number: 305419902 (0x1234567e)
        Signature Algorithm: ecdsa-with-SHA256
        Issuer: CN=CA1_sha256_secp384r1_v3_ca
        Validity
            Not Before: Aug 25 10:42:28 2023 GMT
            Not After : Aug 22 10:42:28 2033 GMT
        Subject: CN=SRK3_sha256_secp384r1_v3_ca
        Subject Public Key Info:
            Public Key Algorithm: id-ecPublicKey
                Public-Key: (384 bit)
                pub:
                    04:05:3f:83:c3:01:0d:5a:8d:3d:2e:c1:1a:72:10:
                    99:cf:dd:b6:99:37:33:a2:6f:43:f3:12:8b:bb:56:
                    7d:29:84:5c:01:5b:52:86:93:d0:76:6d:3d:3c:43:
                    b5:51:98:30:f4:e6:7b:a6:b7:ef:8d:e8:46:c8:2a:
                    a8:99:0b:bc:1f:3b:18:88:93:44:f9:f2:20:ca:3d:
                    1e:55:f9:36:5d:64:9e:92:f3:dd:8d:54:48:26:cf:
                    30:1f:bc:0c:01:f9:f6
                ASN1 OID: secp384r1
                NIST CURVE: P-384
        X509v3 extensions:
            X509v3 Subject Key Identifier: 
                F5:82:7A:35:5A:E7:CA:C5:CA:6F:69:5F:34:C9:2E:5C:8F:17:69:B1
            X509v3 Authority Key Identifier: 
                keyid:37:CA:B2:F7:70:8B:A8:35:1A:64:44:E5:DB:C1:68:94:9B:A7:57:06
                DirName:/CN=CA1_sha256_secp384r1_v3_ca
                serial:5C:45:59:4D:69:72:76:A1:87:3F:77:37:6A:64:AA:7D:0A:3A:43:6A

            X509v3 Basic Constraints: critical
                CA:TRUE
            X509v3 Key Usage: 
                Certificate Sign
    Signature Algorithm: ecdsa-with-SHA256
         30:64:02:30:6a:14:75:66:85:2d:d7:b7:f0:59:e2:2e:99:fc:
         0d:6d:ab:db:67:29:c9:bf:24:2b:cc:10:7f:fc:0e:ff:fa:79:
         6a:07:82:ee:ea:e8:d6:1b:a2:06:94:b6:a1:61:f2:fd:02:30:
         1a:00:53:e7:60:6a:47:d4:25:dd:c1:37:a1:fd:14:5b:b6:72:
         02:de:cc:75:98:50:c4:5b:6b:c2:50:39:57:11:af:3a:ce:dc:
         b3:bb:b9:55:7e:cc:80:d3:ba:1e:59:80
-----BEGIN CERTIFICATE-----
MIICHDCCAaOgAwIBAgIEEjRWfjAKBggqhkjOPQQDAjAlMSMwIQYDVQQDFBpDQTFf
c2hhMjU2X3NlY3AzODRyMV92M19jYTAeFw0yMzA4MjUxMDQyMjhaFw0zMzA4MjIx
MDQyMjhaMCYxJDAiBgNVBAMUG1NSSzNfc2hhMjU2X3NlY3AzODRyMV92M19jYTB2
MBAGByqGSM49AgEGBSuBBAAiA2IABAU/g8MBDVqNPS7BGnIQmc/dtpk3M6JvQ/MS
i7tWfSmEXAFbUoaT0HZtPTxDtVGYMPTme6a3743oRsgqqJkLvB87GIiTRPnyIMo9
HlX5Nl1knpLz3Y1USCbPMB+8DAH59qOBojCBnzAdBgNVHQ4EFgQU9YJ6NVrnysXK
b2lfNMkuXI8XabEwYAYDVR0jBFkwV4AUN8qy93CLqDUaZETl28FolJunVwahKaQn
MCUxIzAhBgNVBAMUGkNBMV9zaGEyNTZfc2VjcDM4NHIxX3YzX2NhghRcRVlNaXJ2
oYc/dzdqZKp9CjpDajAPBgNVHRMBAf8EBTADAQH/MAsGA1UdDwQEAwICBDAKBggq
hkjOPQQDAgNnADBkAjBqFHVmhS3Xt/BZ4i6Z/A1tq9tnKcm/JCvMEH/8Dv/6eWoH
gu7q6NYbogaUtqFh8v0CMBoAU+dgakfUJd3BN6H9FFu2cgLezHWYUMRba8JQOVcR
rzrO3LO7uVV+zIDTuh5ZgA==
-----END CERTIFICATE-----
