Certificate:
    Data:
        Version: 3 (0x2)
        Serial Number: 305419905 (0x12345681)
        Signature Algorithm: ecdsa-with-SHA256
        Issuer: CN=CA1_sha256_secp384r1_v3_ca
        Validity
            Not Before: Aug 25 10:42:30 2023 GMT
            Not After : Aug 22 10:42:30 2033 GMT
        Subject: CN=SRK4_sha256_secp384r1_v3_ca
        Subject Public Key Info:
            Public Key Algorithm: id-ecPublicKey
                Public-Key: (384 bit)
                pub:
                    04:0d:cc:05:20:49:a4:ce:3d:4b:b7:49:2b:1b:4d:
                    b1:75:84:ed:e0:f8:ba:01:dd:97:b0:d4:a3:04:60:
                    40:87:98:81:d6:fd:88:5a:4e:cd:71:fa:86:de:d3:
                    14:29:ad:59:94:10:d8:0f:95:06:a5:4a:26:91:b8:
                    29:28:78:2d:65:87:6d:f2:d2:79:71:96:0d:e8:dd:
                    40:1a:0f:e5:eb:1d:7a:98:55:f1:27:90:6c:c7:0a:
                    91:6f:fa:41:ce:aa:54
                ASN1 OID: secp384r1
                NIST CURVE: P-384
        X509v3 extensions:
            X509v3 Subject Key Identifier: 
                6B:15:6E:CA:4B:6B:7C:54:BF:82:20:F3:3C:66:4E:75:D0:5D:67:FD
            X509v3 Authority Key Identifier: 
                keyid:37:CA:B2:F7:70:8B:A8:35:1A:64:44:E5:DB:C1:68:94:9B:A7:57:06
                DirName:/CN=CA1_sha256_secp384r1_v3_ca
                serial:5C:45:59:4D:69:72:76:A1:87:3F:77:37:6A:64:AA:7D:0A:3A:43:6A

            X509v3 Basic Constraints: critical
                CA:TRUE
            X509v3 Key Usage: 
                Certificate Sign
    Signature Algorithm: ecdsa-with-SHA256
         30:66:02:31:00:d4:de:f5:31:92:ff:80:34:b1:c0:97:89:bc:
         e1:5f:34:f3:20:fd:ef:f8:94:d9:72:5b:6b:37:7f:ef:63:08:
         bd:29:e8:25:d3:12:8b:ef:ed:a8:04:0f:03:54:a9:8c:09:02:
         31:00:af:3b:61:2c:55:ba:65:0e:d4:46:f6:98:f7:91:72:80:
         40:22:92:46:34:2e:22:b8:69:ba:8f:10:d7:e0:36:ad:ac:44:
         8e:96:61:36:96:50:47:f8:f0:38:ad:c9:05:96
-----BEGIN CERTIFICATE-----
MIICHjCCAaOgAwIBAgIEEjRWgTAKBggqhkjOPQQDAjAlMSMwIQYDVQQDFBpDQTFf
c2hhMjU2X3NlY3AzODRyMV92M19jYTAeFw0yMzA4MjUxMDQyMzBaFw0zMzA4MjIx
MDQyMzBaMCYxJDAiBgNVBAMUG1NSSzRfc2hhMjU2X3NlY3AzODRyMV92M19jYTB2
MBAGByqGSM49AgEGBSuBBAAiA2IABA3MBSBJpM49S7dJKxtNsXWE7eD4ugHdl7DU
owRgQIeYgdb9iFpOzXH6ht7TFCmtWZQQ2A+VBqVKJpG4KSh4LWWHbfLSeXGWDejd
QBoP5esdephV8SeQbMcKkW/6Qc6qVKOBojCBnzAdBgNVHQ4EFgQUaxVuyktrfFS/
giDzPGZOddBdZ/0wYAYDVR0jBFkwV4AUN8qy93CLqDUaZETl28FolJunVwahKaQn
MCUxIzAhBgNVBAMUGkNBMV9zaGEyNTZfc2VjcDM4NHIxX3YzX2NhghRcRVlNaXJ2
oYc/dzdqZKp9CjpDajAPBgNVHRMBAf8EBTADAQH/MAsGA1UdDwQEAwICBDAKBggq
hkjOPQQDAgNpADBmAjEA1N71MZL/gDSxwJeJvOFfNPMg/e/4lNlyW2s3f+9jCL0p
6CXTEovv7agEDwNUqYwJAjEArzthLFW6ZQ7URvaY95FygEAikkY0LiK4abqPENfg
Nq2sRI6WYTaWUEf48DityQWW
-----END CERTIFICATE-----
