Certificate:
    Data:
        Version: 3 (0x2)
        Serial Number: 305419897 (0x12345679)
        Signature Algorithm: sha256WithRSAEncryption
        Issuer: CN=SRK1_sha256_2048_65537_v3_ca
        Validity
            Not Before: May  4 22:08:42 2023 GMT
            Not After : May  1 22:08:42 2033 GMT
        Subject: CN=CSF1_1_sha256_2048_65537_v3_usr
        Subject Public Key Info:
            Public Key Algorithm: rsaEncryption
                RSA Public-Key: (2048 bit)
                Modulus:
                    00:bb:3f:d1:a8:e4:c8:53:99:62:e9:83:ab:03:b8:
                    d1:20:f8:c1:ca:8a:91:a9:85:bc:c7:f1:6f:83:bd:
                    b3:3e:79:39:52:f5:64:0a:6a:a3:46:90:f5:fb:e7:
                    84:80:e8:d5:a7:47:e9:8e:20:42:0c:5c:c4:90:03:
                    60:c3:22:d5:96:9c:39:b2:41:36:fd:99:24:4d:52:
                    77:63:39:b2:9d:a6:87:c2:60:a3:1a:79:c4:ab:17:
                    af:b6:88:a7:0a:27:78:2a:39:0b:33:38:24:6c:f8:
                    b2:6d:2a:50:33:3e:bd:3b:5f:b1:d7:84:43:a7:87:
                    95:15:bd:7d:1a:6d:f3:43:df:a6:28:ad:5d:11:aa:
                    a4:a1:67:e0:70:3f:06:8e:f4:58:6e:45:92:fe:3b:
                    66:71:b9:49:2b:74:12:20:2c:2c:1c:84:0d:fe:bc:
                    76:a9:58:af:04:d6:2a:34:45:8a:25:04:fe:b9:0f:
                    83:2f:76:5f:32:27:a1:29:ca:ac:b4:69:b4:11:75:
                    c2:4c:fc:13:a3:f0:b8:59:16:6a:5f:9c:99:6e:3b:
                    01:c4:7c:da:ad:46:80:de:d6:68:0c:7c:6d:e1:92:
                    96:73:01:ab:4b:51:3b:8c:17:6f:ea:ba:58:3c:d3:
                    dd:c5:29:64:59:70:25:26:24:48:79:cc:b9:a2:ba:
                    73:9f
                Exponent: 65537 (0x10001)
        X509v3 extensions:
            X509v3 Basic Constraints: 
                CA:FALSE
            Netscape Comment: 
                OpenSSL Generated Certificate
            X509v3 Subject Key Identifier: 
                C0:37:D2:B0:28:92:CD:2B:8C:29:E9:E0:30:19:29:C3:B5:8A:6E:E5
            X509v3 Authority Key Identifier: 
                keyid:FE:1A:03:2C:B3:DB:C8:2F:6F:48:B1:BF:83:D2:26:A2:03:74:AD:0D

    Signature Algorithm: sha256WithRSAEncryption
         08:93:8f:bb:9c:0e:21:70:97:75:2e:c3:c3:f8:a2:95:2f:bf:
         67:35:67:68:7e:c5:ef:7d:b7:6f:fc:ca:61:b9:60:b5:18:9f:
         44:40:ef:01:d7:f6:9d:41:0c:9a:17:8f:d6:aa:ca:01:76:80:
         8f:b4:fd:ef:8a:8e:bb:7c:64:24:32:87:d5:03:e5:8b:1e:ed:
         31:51:48:10:7a:77:81:82:c7:37:ec:0c:b1:97:25:cb:0e:65:
         c9:54:6e:90:99:db:06:10:d1:cc:c1:a5:0f:55:4c:53:0b:a4:
         59:ba:64:02:ee:e1:15:ff:34:94:fb:d7:1e:16:44:eb:3b:fc:
         af:31:9d:62:d7:08:69:2f:20:50:f6:21:e7:8f:ff:f1:da:e6:
         82:da:36:bc:27:cc:a4:06:db:b1:40:a7:05:ce:7c:fd:21:ef:
         7d:c0:99:79:a4:cb:18:89:ae:bb:ff:e1:82:ad:be:fc:17:b0:
         ce:91:8b:7b:9f:56:35:84:a9:48:d7:85:d8:f1:88:ad:49:66:
         d8:07:a4:e6:df:d7:3c:bc:1b:19:a3:9e:d3:85:1c:40:48:36:
         74:97:27:5b:5f:7a:8d:e8:47:46:30:6f:4d:5f:27:c6:e1:de:
         1b:27:4a:3e:a6:f5:9d:a3:33:20:e4:60:4d:03:c1:a8:b0:eb:
         bf:73:a4:35
-----BEGIN CERTIFICATE-----
MIIDSjCCAjKgAwIBAgIEEjRWeTANBgkqhkiG9w0BAQsFADAnMSUwIwYDVQQDFBxT
UksxX3NoYTI1Nl8yMDQ4XzY1NTM3X3YzX2NhMB4XDTIzMDUwNDIyMDg0MloXDTMz
MDUwMTIyMDg0MlowKjEoMCYGA1UEAxQfQ1NGMV8xX3NoYTI1Nl8yMDQ4XzY1NTM3
X3YzX3VzcjCCASIwDQYJKoZIhvcNAQEBBQADggEPADCCAQoCggEBALs/0ajkyFOZ
YumDqwO40SD4wcqKkamFvMfxb4O9sz55OVL1ZApqo0aQ9fvnhIDo1adH6Y4gQgxc
xJADYMMi1ZacObJBNv2ZJE1Sd2M5sp2mh8Jgoxp5xKsXr7aIpwoneCo5CzM4JGz4
sm0qUDM+vTtfsdeEQ6eHlRW9fRpt80PfpiitXRGqpKFn4HA/Bo70WG5Fkv47ZnG5
SSt0EiAsLByEDf68dqlYrwTWKjRFiiUE/rkPgy92XzInoSnKrLRptBF1wkz8E6Pw
uFkWal+cmW47AcR82q1GgN7WaAx8beGSlnMBq0tRO4wXb+q6WDzT3cUpZFlwJSYk
SHnMuaK6c58CAwEAAaN7MHkwCQYDVR0TBAIwADAsBglghkgBhvhCAQ0EHxYdT3Bl
blNTTCBHZW5lcmF0ZWQgQ2VydGlmaWNhdGUwHQYDVR0OBBYEFMA30rAoks0rjCnp
4DAZKcO1im7lMB8GA1UdIwQYMBaAFP4aAyyz28gvb0ixv4PSJqIDdK0NMA0GCSqG
SIb3DQEBCwUAA4IBAQAIk4+7nA4hcJd1LsPD+KKVL79nNWdofsXvfbdv/MphuWC1
GJ9EQO8B1/adQQyaF4/WqsoBdoCPtP3vio67fGQkMofVA+WLHu0xUUgQeneBgsc3
7AyxlyXLDmXJVG6QmdsGENHMwaUPVUxTC6RZumQC7uEV/zSU+9ceFkTrO/yvMZ1i
1whpLyBQ9iHnj//x2uaC2ja8J8ykBtuxQKcFznz9Ie99wJl5pMsYia67/+GCrb78
F7DOkYt7n1Y1hKlI14XY8YitSWbYB6Tm39c8vBsZo57ThRxASDZ0lydbX3qN6EdG
MG9NXyfG4d4bJ0o+pvWdozMg5GBNA8GosOu/c6Q1
-----END CERTIFICATE-----
