Certificate:
    Data:
        Version: 3 (0x2)
        Serial Number: 305419897 (0x12345679)
        Signature Algorithm: ecdsa-with-SHA256
        Issuer: CN=SRK1_sha256_secp521r1_v3_ca
        Validity
            Not Before: Sep  1 11:55:13 2023 GMT
            Not After : Aug 29 11:55:13 2033 GMT
        Subject: CN=CSF1_1_sha256_secp521r1_v3_usr
        Subject Public Key Info:
            Public Key Algorithm: id-ecPublicKey
                Public-Key: (521 bit)
                pub:
                    04:00:57:e5:a7:f1:12:bc:ac:11:d7:82:29:1f:b4:
                    2f:55:b0:41:c7:f8:ff:12:bc:98:5c:4e:66:a2:7c:
                    b9:86:d5:ab:f1:94:53:86:96:5a:09:ed:27:57:8e:
                    91:25:2f:9b:e1:7a:e3:c6:8a:3e:b6:91:d8:8f:3c:
                    7f:d3:13:57:25:4c:83:00:cf:47:e6:31:94:47:2f:
                    61:d8:3a:6d:c0:8f:60:51:33:c3:b5:c4:ee:ac:44:
                    8b:2a:23:73:b8:0b:9a:b0:9f:90:b4:87:12:31:fe:
                    f8:2b:ee:61:ac:41:12:6c:96:d9:83:eb:63:b3:f7:
                    f7:b5:61:75:e8:25:75:a6:5d:ff:04:6e:f0
                ASN1 OID: secp521r1
                NIST CURVE: P-521
        X509v3 extensions:
            X509v3 Basic Constraints: 
                CA:FALSE
            Netscape Comment: 
                OpenSSL Generated Certificate
            X509v3 Subject Key Identifier: 
                3D:F7:E6:9A:FD:A3:A8:08:48:8D:D8:4F:1F:F7:AC:18:FE:98:FB:88
            X509v3 Authority Key Identifier: 
                keyid:EA:5B:0F:2B:3F:1F:CA:FC:E0:00:3C:24:C6:27:9F:EF:39:E2:9C:D1

    Signature Algorithm: ecdsa-with-SHA256
         30:81:86:02:41:28:2d:8f:0a:5c:6c:ab:cd:ae:a1:73:ab:90:
         c1:8b:08:67:06:ea:aa:2a:37:75:ab:e8:98:14:87:3e:e3:45:
         6f:3b:43:7b:28:b4:a1:a6:c2:aa:3f:63:b0:b5:ea:c5:97:28:
         4b:15:9a:f7:44:b8:97:3f:de:26:dd:7b:99:01:da:d0:02:41:
         09:41:74:43:9c:bb:d0:78:56:31:61:48:59:16:3d:bb:81:d9:
         1e:46:ac:1a:45:ec:c5:c2:64:56:5b:47:22:4c:e9:fe:21:6a:
         bb:25:ba:36:4d:54:d7:d0:88:c1:0c:60:2a:1b:06:d4:7d:43:
         cc:11:20:53:5f:74:a3:47:94:8a:a7
-----BEGIN CERTIFICATE-----
MIICQjCCAaWgAwIBAgIEEjRWeTAKBggqhkjOPQQDAjAmMSQwIgYDVQQDFBtTUksx
X3NoYTI1Nl9zZWNwNTIxcjFfdjNfY2EwHhcNMjMwOTAxMTE1NTEzWhcNMzMwODI5
MTE1NTEzWjApMScwJQYDVQQDFB5DU0YxXzFfc2hhMjU2X3NlY3A1MjFyMV92M191
c3IwgZswEAYHKoZIzj0CAQYFK4EEACMDgYYABABX5afxErysEdeCKR+0L1WwQcf4
/xK8mFxOZqJ8uYbVq/GUU4aWWgntJ1eOkSUvm+F648aKPraR2I88f9MTVyVMgwDP
R+YxlEcvYdg6bcCPYFEzw7XE7qxEiyojc7gLmrCfkLSHEjH++CvuYaxBEmyW2YPr
Y7P397VhdegldaZd/wRu8KN7MHkwCQYDVR0TBAIwADAsBglghkgBhvhCAQ0EHxYd
T3BlblNTTCBHZW5lcmF0ZWQgQ2VydGlmaWNhdGUwHQYDVR0OBBYEFD335pr9o6gI
SI3YTx/3rBj+mPuIMB8GA1UdIwQYMBaAFOpbDys/H8r84AA8JMYnn+854pzRMAoG
CCqGSM49BAMCA4GKADCBhgJBKC2PClxsq82uoXOrkMGLCGcG6qoqN3Wr6JgUhz7j
RW87Q3sotKGmwqo/Y7C16sWXKEsVmvdEuJc/3ibde5kB2tACQQlBdEOcu9B4VjFh
SFkWPbuB2R5GrBpF7MXCZFZbRyJM6f4harslujZNVNfQiMEMYCobBtR9Q8wRIFNf
dKNHlIqn
-----END CERTIFICATE-----
