Certificate:
    Data:
        Version: 3 (0x2)
        Serial Number: 305419900 (0x1234567c)
    Signature Algorithm: sha256WithRSAEncryption
        Issuer: CN=SRK2_sha256_2048_65537_v3_ca
        Validity
            Not Before: Aug  8 05:36:06 2019 GMT
            Not After : Aug  7 05:36:06 2022 GMT
        Subject: CN=CSF2_1_sha256_2048_65537_v3_usr
        Subject Public Key Info:
            Public Key Algorithm: rsaEncryption
                Public-Key: (2048 bit)
                Modulus:
                    00:c0:e7:70:30:49:39:3e:4d:c4:f5:fb:3a:f8:0c:
                    1d:ce:85:34:9b:8a:90:b2:35:e5:c0:56:e3:72:6f:
                    a5:cf:71:8b:af:0f:1c:52:bd:e8:4e:f4:e3:61:63:
                    38:ec:fa:60:57:e4:6e:15:1d:20:8a:cc:85:ab:fd:
                    98:5d:f8:28:b6:bc:43:b5:70:38:3b:3a:9d:a7:1b:
                    e0:fe:0d:70:44:e9:e4:05:5d:0b:26:45:30:a0:3e:
                    e0:f1:56:ae:39:b4:96:ad:9b:90:71:e4:6d:4a:8c:
                    59:43:bc:ce:bd:41:4f:6e:0b:d2:76:d9:aa:a2:00:
                    90:e2:50:a9:66:29:fe:67:a8:4f:d0:b7:b6:bb:90:
                    c2:9d:9e:2b:78:05:ab:02:d0:0a:44:89:6d:87:23:
                    f8:31:af:f4:b9:ca:ca:df:a3:53:99:3f:37:f9:b7:
                    9b:42:03:2c:87:ff:7b:2f:ec:c0:84:bc:f2:0c:55:
                    2b:e0:72:18:5c:8d:1a:12:f1:cb:cb:24:76:5f:60:
                    e7:db:a8:1e:03:01:35:d1:5f:0a:86:25:88:f2:51:
                    c8:68:a1:e2:4f:ca:70:50:78:33:fd:37:62:8b:1d:
                    5e:37:eb:a0:d6:d8:7d:01:90:72:2e:3e:40:62:38:
                    b7:1f:57:dc:1c:50:8a:e9:6d:dc:cd:01:ea:a8:b5:
                    67:5b
                Exponent: 65537 (0x10001)
        X509v3 extensions:
            X509v3 Basic Constraints: 
                CA:FALSE
            Netscape Comment: 
                OpenSSL Generated Certificate
            X509v3 Subject Key Identifier: 
                22:DA:85:A5:D7:52:14:AF:69:1B:E0:B8:14:33:C0:3B:FD:62:B6:E2
            X509v3 Authority Key Identifier: 
                keyid:8F:7C:C1:5B:0B:CC:91:31:A1:3B:F5:44:01:35:97:3D:50:95:4D:88

    Signature Algorithm: sha256WithRSAEncryption
         3d:f3:c4:12:86:df:50:e3:b8:04:ca:25:ce:78:88:c9:f8:f5:
         15:0f:7a:21:31:42:a7:24:ab:fd:23:5d:44:23:e1:9b:62:74:
         95:8e:69:71:61:5b:64:3f:16:8d:d9:d9:29:ac:bf:eb:a9:89:
         71:45:58:05:b7:7a:2e:03:b1:13:dd:23:c3:45:a5:69:9b:3b:
         75:2a:12:ea:d4:63:0c:7b:8d:36:d1:ed:fc:0f:b0:c9:94:0c:
         07:0a:38:74:01:5a:02:a7:0b:52:0a:cd:e4:52:f9:3f:f4:7b:
         71:77:e9:4d:c0:33:23:77:b8:ac:86:aa:2d:c3:47:1b:83:30:
         53:b9:3c:1b:37:7d:52:1d:e8:6a:24:18:ff:b0:22:79:e5:ae:
         d3:e4:48:2c:fa:6b:ef:31:b1:a2:2a:23:d4:2f:b5:57:e6:26:
         95:4f:28:d9:31:4c:d7:0c:8b:05:d1:9e:2f:fe:fa:2f:98:d8:
         2d:cd:5c:55:fd:09:c4:45:56:d3:9e:3b:8a:c3:3f:f1:31:46:
         cd:bd:b3:7c:af:aa:37:1b:7f:4b:5e:50:c9:7d:fb:af:a0:b3:
         f0:b7:4d:96:1b:ce:3e:e8:bc:c4:f6:bf:e6:63:91:fc:59:b8:
         16:cb:0a:16:6f:e1:f9:0a:9d:20:bd:97:1b:26:97:d7:6e:f9:
         06:e0:02:35
-----BEGIN CERTIFICATE-----
MIIDSjCCAjKgAwIBAgIEEjRWfDANBgkqhkiG9w0BAQsFADAnMSUwIwYDVQQDFBxT
UksyX3NoYTI1Nl8yMDQ4XzY1NTM3X3YzX2NhMB4XDTE5MDgwODA1MzYwNloXDTIy
MDgwNzA1MzYwNlowKjEoMCYGA1UEAxQfQ1NGMl8xX3NoYTI1Nl8yMDQ4XzY1NTM3
X3YzX3VzcjCCASIwDQYJKoZIhvcNAQEBBQADggEPADCCAQoCggEBAMDncDBJOT5N
xPX7OvgMHc6FNJuKkLI15cBW43Jvpc9xi68PHFK96E7042FjOOz6YFfkbhUdIIrM
hav9mF34KLa8Q7VwODs6nacb4P4NcETp5AVdCyZFMKA+4PFWrjm0lq2bkHHkbUqM
WUO8zr1BT24L0nbZqqIAkOJQqWYp/meoT9C3truQwp2eK3gFqwLQCkSJbYcj+DGv
9LnKyt+jU5k/N/m3m0IDLIf/ey/swIS88gxVK+ByGFyNGhLxy8skdl9g59uoHgMB
NdFfCoYliPJRyGih4k/KcFB4M/03YosdXjfroNbYfQGQci4+QGI4tx9X3BxQiult
3M0B6qi1Z1sCAwEAAaN7MHkwCQYDVR0TBAIwADAsBglghkgBhvhCAQ0EHxYdT3Bl
blNTTCBHZW5lcmF0ZWQgQ2VydGlmaWNhdGUwHQYDVR0OBBYEFCLahaXXUhSvaRvg
uBQzwDv9YrbiMB8GA1UdIwQYMBaAFI98wVsLzJExoTv1RAE1lz1QlU2IMA0GCSqG
SIb3DQEBCwUAA4IBAQA988QSht9Q47gEyiXOeIjJ+PUVD3ohMUKnJKv9I11EI+Gb
YnSVjmlxYVtkPxaN2dkprL/rqYlxRVgFt3ouA7ET3SPDRaVpmzt1KhLq1GMMe402
0e38D7DJlAwHCjh0AVoCpwtSCs3kUvk/9Htxd+lNwDMjd7ishqotw0cbgzBTuTwb
N31SHehqJBj/sCJ55a7T5Egs+mvvMbGiKiPUL7VX5iaVTyjZMUzXDIsF0Z4v/vov
mNgtzVxV/QnERVbTnjuKwz/xMUbNvbN8r6o3G39LXlDJffuvoLPwt02WG84+6LzE
9r/mY5H8WbgWywoWb+H5Cp0gvZcbJpfXbvkG4AI1
-----END CERTIFICATE-----
