Certificate:
    Data:
        Version: 3 (0x2)
        Serial Number: 305419897 (0x12345679)
    Signature Algorithm: sha256WithRSAEncryption
        Issuer: CN=SRK1_sha256_2048_65537_v3_ca
        Validity
            Not Before: Apr 24 16:20:47 2023 GMT
            Not After : Apr 21 16:20:47 2033 GMT
        Subject: CN=CSF1_1_sha256_2048_65537_v3_usr
        Subject Public Key Info:
            Public Key Algorithm: rsaEncryption
                Public-Key: (2048 bit)
                Modulus:
                    00:cd:20:ef:85:67:08:f0:aa:69:c6:3f:1e:fd:ea:
                    ba:09:9f:23:2a:01:e3:9c:15:c9:f3:41:54:be:93:
                    e6:78:5d:8f:85:5d:f3:40:6c:aa:4b:d8:c5:ec:56:
                    b8:eb:34:82:7c:59:7c:38:5b:f3:d9:3b:91:29:d6:
                    85:87:ab:b6:01:33:6b:01:51:f5:76:af:73:d0:ce:
                    40:00:82:19:a7:25:05:de:55:de:ce:de:22:0a:02:
                    b4:cd:85:ef:7c:56:47:c9:2b:71:5b:0e:9e:74:70:
                    0b:57:39:b6:53:3b:6f:65:37:1b:b0:ab:da:4f:05:
                    79:99:12:d2:f1:82:29:9b:04:e2:a8:9d:34:6e:d1:
                    e7:81:ef:d8:12:55:7d:73:73:a5:6e:eb:f2:24:91:
                    75:85:28:d0:5e:ad:ff:ee:1f:9f:f7:a7:a8:1f:de:
                    d8:3a:c2:ff:6a:4c:bc:e7:6c:f6:01:2c:83:70:1e:
                    83:a6:34:13:63:c7:cf:85:7b:73:d4:d5:ef:6e:9b:
                    70:da:41:f8:95:04:15:be:6b:16:19:8e:e1:cc:e5:
                    6d:dc:8f:92:3f:0b:fa:4b:08:78:b3:17:b9:a9:63:
                    3c:64:b1:84:88:fd:3f:2f:b4:4a:1b:eb:e6:70:f8:
                    a1:2c:58:d2:49:11:35:20:aa:1d:26:24:d6:c6:9f:
                    2f:f1
                Exponent: 65537 (0x10001)
        X509v3 extensions:
            X509v3 Basic Constraints: 
                CA:FALSE
            Netscape Comment: 
                OpenSSL Generated Certificate
            X509v3 Subject Key Identifier: 
                95:9A:F4:C5:B6:46:3A:28:AE:A8:C0:3C:55:73:9F:54:81:9E:FC:F9
            X509v3 Authority Key Identifier: 
                keyid:47:02:B6:D3:0D:05:80:89:08:48:CC:C9:49:FE:79:DD:73:78:75:BD

    Signature Algorithm: sha256WithRSAEncryption
         a7:e3:12:fb:c4:7f:f6:54:f8:01:b3:cc:af:5a:fa:ae:10:44:
         06:fa:23:f8:62:2e:a1:a2:45:1f:22:67:30:64:54:9a:2e:04:
         ac:51:a0:79:87:87:c9:09:88:dc:60:a1:0c:aa:3d:5f:fe:40:
         ce:1f:11:ab:33:63:51:14:d0:11:f4:04:3e:87:0c:1c:f3:f5:
         c8:d2:3c:8f:aa:8e:19:01:78:f7:5e:38:a4:44:a3:ce:2a:eb:
         39:eb:c3:3a:94:2b:b0:e0:91:d3:a5:ba:0b:42:3f:cb:3f:45:
         a3:48:dc:49:f6:23:6e:ff:af:ab:5c:29:b1:e8:6d:a8:08:19:
         7d:84:26:49:ae:9d:56:c2:29:d5:7f:4a:b4:16:fd:ee:10:63:
         4a:c5:87:d0:c0:28:4e:26:57:0e:2c:49:c3:22:fb:10:5a:b5:
         13:e0:c0:12:19:f9:e0:4a:42:45:1a:62:e0:e7:53:1f:80:ee:
         cd:c7:72:21:ad:18:05:3e:e9:21:1c:cb:75:4b:17:be:d3:29:
         f7:87:37:4a:c9:1c:20:77:9c:e7:70:e9:2b:c2:91:98:e9:fa:
         5b:d8:4c:b9:ac:74:ac:1c:94:84:cf:f1:d6:9c:32:23:7a:de:
         ea:e6:dc:93:8d:0b:6a:19:78:09:1a:41:85:7c:33:61:15:a4:
         04:6a:ea:32
-----BEGIN CERTIFICATE-----
MIIDSjCCAjKgAwIBAgIEEjRWeTANBgkqhkiG9w0BAQsFADAnMSUwIwYDVQQDFBxT
UksxX3NoYTI1Nl8yMDQ4XzY1NTM3X3YzX2NhMB4XDTIzMDQyNDE2MjA0N1oXDTMz
MDQyMTE2MjA0N1owKjEoMCYGA1UEAxQfQ1NGMV8xX3NoYTI1Nl8yMDQ4XzY1NTM3
X3YzX3VzcjCCASIwDQYJKoZIhvcNAQEBBQADggEPADCCAQoCggEBAM0g74VnCPCq
acY/Hv3qugmfIyoB45wVyfNBVL6T5nhdj4Vd80BsqkvYxexWuOs0gnxZfDhb89k7
kSnWhYertgEzawFR9Xavc9DOQACCGaclBd5V3s7eIgoCtM2F73xWR8krcVsOnnRw
C1c5tlM7b2U3G7Cr2k8FeZkS0vGCKZsE4qidNG7R54Hv2BJVfXNzpW7r8iSRdYUo
0F6t/+4fn/enqB/e2DrC/2pMvOds9gEsg3Aeg6Y0E2PHz4V7c9TV726bcNpB+JUE
Fb5rFhmO4czlbdyPkj8L+ksIeLMXualjPGSxhIj9Py+0Shvr5nD4oSxY0kkRNSCq
HSYk1safL/ECAwEAAaN7MHkwCQYDVR0TBAIwADAsBglghkgBhvhCAQ0EHxYdT3Bl
blNTTCBHZW5lcmF0ZWQgQ2VydGlmaWNhdGUwHQYDVR0OBBYEFJWa9MW2RjoorqjA
PFVzn1SBnvz5MB8GA1UdIwQYMBaAFEcCttMNBYCJCEjMyUn+ed1zeHW9MA0GCSqG
SIb3DQEBCwUAA4IBAQCn4xL7xH/2VPgBs8yvWvquEEQG+iP4Yi6hokUfImcwZFSa
LgSsUaB5h4fJCYjcYKEMqj1f/kDOHxGrM2NRFNAR9AQ+hwwc8/XI0jyPqo4ZAXj3
XjikRKPOKus568M6lCuw4JHTpboLQj/LP0WjSNxJ9iNu/6+rXCmx6G2oCBl9hCZJ
rp1WwinVf0q0Fv3uEGNKxYfQwChOJlcOLEnDIvsQWrUT4MASGfngSkJFGmLg51Mf
gO7Nx3IhrRgFPukhHMt1Sxe+0yn3hzdKyRwgd5zncOkrwpGY6fpb2Ey5rHSsHJSE
z/HWnDIjet7q5tyTjQtqGXgJGkGFfDNhFaQEauoy
-----END CERTIFICATE-----
