Certificate:
    Data:
        Version: 3 (0x2)
        Serial Number: 305419897 (0x12345679)
    Signature Algorithm: sha256WithRSAEncryption
        Issuer: CN=SRK1_sha256_2048_65537_v3_ca
        Validity
            Not Before: Aug  7 06:26:31 2019 GMT
            Not After : Aug  6 06:26:31 2023 GMT
        Subject: CN=CSF1_1_sha256_2048_65537_v3_usr
        Subject Public Key Info:
            Public Key Algorithm: rsaEncryption
                Public-Key: (2048 bit)
                Modulus:
                    00:f3:91:11:0b:6b:5f:c1:72:15:a0:17:03:2c:06:
                    0e:62:12:e1:f4:ef:2a:db:b6:33:e5:4f:c1:6d:7b:
                    e5:12:82:f0:5c:98:a4:c9:cf:06:f7:af:49:66:93:
                    cd:0a:89:e7:8f:70:f6:61:83:24:88:99:a8:06:be:
                    eb:3c:9a:5b:83:16:bc:fb:ce:58:10:55:95:5c:b5:
                    ee:fc:d5:04:78:b3:5e:f9:73:46:ae:69:7f:31:55:
                    86:6e:df:7a:bd:19:8a:f5:43:66:5d:e0:7d:21:0d:
                    93:b1:62:3b:b5:a2:77:0e:9f:f1:4a:9c:46:9e:88:
                    0f:c4:f8:00:d5:74:58:f6:c4:77:40:05:a0:b3:b5:
                    99:e7:21:46:13:44:30:fb:3e:6f:22:95:cf:26:3b:
                    ec:b2:66:6f:bf:a5:b3:00:e2:a4:83:0e:c1:17:08:
                    a8:01:30:9c:fb:3b:67:84:00:75:b5:eb:b5:29:5f:
                    b3:93:b6:f9:d5:4c:52:44:19:c2:f6:19:08:38:6a:
                    86:03:08:1c:12:fb:87:ab:de:f3:a7:1e:63:d2:51:
                    8c:90:d0:bc:65:8f:c8:55:dd:8e:8b:59:ef:dc:4c:
                    db:8d:28:8c:5d:02:00:5c:ab:ee:a2:67:d4:47:67:
                    9e:95:3b:f2:63:eb:7e:ff:1d:de:d6:a6:45:f9:ab:
                    06:53
                Exponent: 65537 (0x10001)
        X509v3 extensions:
            X509v3 Basic Constraints: 
                CA:FALSE
            Netscape Comment: 
                OpenSSL Generated Certificate
            X509v3 Subject Key Identifier: 
                38:50:D7:8F:15:7E:90:74:D9:A7:47:1F:59:B5:25:CA:3E:1E:EB:06
            X509v3 Authority Key Identifier: 
                keyid:0D:FB:07:20:B2:8E:2E:98:0B:A6:9F:F7:6E:B0:91:B0:D5:F3:A6:89

    Signature Algorithm: sha256WithRSAEncryption
         54:c6:d4:d0:f0:69:22:c5:47:d1:0c:58:a2:07:15:25:8a:06:
         12:2a:fc:dc:07:ec:7a:83:1b:48:e3:be:8d:67:0b:91:1a:f4:
         6f:3b:50:4c:a7:a1:e0:f5:7a:df:dc:60:a6:6b:2c:82:dc:5c:
         e4:d4:b9:e8:9d:b7:02:6e:00:a4:e1:07:75:db:51:69:17:ad:
         5d:ac:c5:4a:d7:4d:70:c2:ed:b4:ae:23:07:d0:fe:6b:6b:9b:
         ec:7a:08:44:75:96:40:7d:83:f4:44:f8:06:41:5d:62:2f:3d:
         10:61:89:6b:6a:84:c4:77:69:fd:0e:ed:51:fc:c2:f3:5d:3c:
         7b:7f:0f:63:16:3e:cf:f6:09:fc:c3:24:74:cf:bf:76:2e:b6:
         fa:74:e0:c5:88:b7:b8:98:12:9e:f2:45:2f:cc:20:47:82:d4:
         b4:4d:1b:22:bf:f1:65:ca:2b:51:64:a8:5f:6a:31:53:59:45:
         d5:41:76:09:29:75:86:5d:47:6d:60:2c:43:f8:26:9f:fd:89:
         08:59:9a:7a:2f:9c:f1:ff:9e:24:cd:4b:da:39:1f:56:d5:4a:
         1d:93:e4:3c:41:3e:b4:db:3d:c7:2a:29:14:58:4e:4e:d3:7d:
         09:a1:c1:30:22:d5:89:d9:07:38:2f:71:a3:f6:c6:e0:76:06:
         c7:2c:05:4c
-----BEGIN CERTIFICATE-----
MIIDSjCCAjKgAwIBAgIEEjRWeTANBgkqhkiG9w0BAQsFADAnMSUwIwYDVQQDFBxT
UksxX3NoYTI1Nl8yMDQ4XzY1NTM3X3YzX2NhMB4XDTE5MDgwNzA2MjYzMVoXDTIz
MDgwNjA2MjYzMVowKjEoMCYGA1UEAxQfQ1NGMV8xX3NoYTI1Nl8yMDQ4XzY1NTM3
X3YzX3VzcjCCASIwDQYJKoZIhvcNAQEBBQADggEPADCCAQoCggEBAPOREQtrX8Fy
FaAXAywGDmIS4fTvKtu2M+VPwW175RKC8FyYpMnPBvevSWaTzQqJ549w9mGDJIiZ
qAa+6zyaW4MWvPvOWBBVlVy17vzVBHizXvlzRq5pfzFVhm7fer0ZivVDZl3gfSEN
k7FiO7Widw6f8UqcRp6ID8T4ANV0WPbEd0AFoLO1mechRhNEMPs+byKVzyY77LJm
b7+lswDipIMOwRcIqAEwnPs7Z4QAdbXrtSlfs5O2+dVMUkQZwvYZCDhqhgMIHBL7
h6ve86ceY9JRjJDQvGWPyFXdjotZ79xM240ojF0CAFyr7qJn1EdnnpU78mPrfv8d
3tamRfmrBlMCAwEAAaN7MHkwCQYDVR0TBAIwADAsBglghkgBhvhCAQ0EHxYdT3Bl
blNTTCBHZW5lcmF0ZWQgQ2VydGlmaWNhdGUwHQYDVR0OBBYEFDhQ148VfpB02adH
H1m1Jco+HusGMB8GA1UdIwQYMBaAFA37ByCyji6YC6af926wkbDV86aJMA0GCSqG
SIb3DQEBCwUAA4IBAQBUxtTQ8GkixUfRDFiiBxUligYSKvzcB+x6gxtI476NZwuR
GvRvO1BMp6Hg9Xrf3GCmayyC3Fzk1LnonbcCbgCk4Qd121FpF61drMVK101wwu20
riMH0P5ra5vseghEdZZAfYP0RPgGQV1iLz0QYYlraoTEd2n9Du1R/MLzXTx7fw9j
Fj7P9gn8wyR0z792Lrb6dODFiLe4mBKe8kUvzCBHgtS0TRsiv/FlyitRZKhfajFT
WUXVQXYJKXWGXUdtYCxD+Caf/YkIWZp6L5zx/54kzUvaOR9W1Uodk+Q8QT602z3H
KikUWE5O030JocEwItWJ2Qc4L3Gj9sbgdgbHLAVM
-----END CERTIFICATE-----
