Certificate:
    Data:
        Version: 3 (0x2)
        Serial Number: 305419898 (0x1234567a)
        Signature Algorithm: sha256WithRSAEncryption
        Issuer: CN=SRK1_sha256_2048_65537_v3_ca
        Validity
            Not Before: May  4 22:08:43 2023 GMT
            Not After : May  1 22:08:43 2033 GMT
        Subject: CN=IMG1_1_sha256_2048_65537_v3_usr
        Subject Public Key Info:
            Public Key Algorithm: rsaEncryption
                RSA Public-Key: (2048 bit)
                Modulus:
                    00:ba:27:0e:03:0a:53:4f:cb:d3:04:6c:a9:b9:c5:
                    aa:38:13:b5:b4:c4:e5:9d:60:e3:68:8a:80:c2:d5:
                    b5:0b:b7:44:2d:82:f5:de:07:c9:f5:d6:05:52:1b:
                    16:b7:92:52:83:e8:60:df:eb:bc:22:78:f9:66:73:
                    24:26:09:b7:54:51:f0:ff:fa:7f:36:da:d6:21:1d:
                    ff:2e:eb:f3:94:16:65:97:94:4d:7f:8e:a6:98:93:
                    6c:dc:c1:2e:92:8c:d8:de:95:7b:72:93:a7:e9:76:
                    38:97:62:dd:1d:83:ff:61:21:db:16:c9:d4:22:aa:
                    25:86:75:93:09:2c:3e:b7:f5:21:14:e4:a0:8e:53:
                    1e:a3:9b:4c:d2:46:b1:92:9b:84:6c:73:99:d8:cb:
                    6d:b6:f2:d5:51:d0:ee:b0:2e:79:48:07:6e:87:6c:
                    47:0d:a2:7e:05:46:64:7f:18:16:bb:86:48:e5:84:
                    16:c8:5f:15:b7:86:8f:ad:5d:70:59:64:0d:24:17:
                    c0:a9:4b:cd:08:3e:76:96:67:93:60:46:e3:12:96:
                    bf:87:7b:34:3b:e4:9c:09:75:1d:c8:67:97:9e:08:
                    bd:25:59:e3:6a:62:b2:16:62:49:d0:de:99:9c:c7:
                    8f:40:9f:ac:fa:7e:ed:38:95:a5:d2:3b:7d:17:d0:
                    6e:3d
                Exponent: 65537 (0x10001)
        X509v3 extensions:
            X509v3 Basic Constraints: 
                CA:FALSE
            Netscape Comment: 
                OpenSSL Generated Certificate
            X509v3 Subject Key Identifier: 
                33:50:6A:02:FA:C4:D4:4A:0B:DE:0A:9E:45:2A:05:80:BE:FE:DC:CC
            X509v3 Authority Key Identifier: 
                keyid:FE:1A:03:2C:B3:DB:C8:2F:6F:48:B1:BF:83:D2:26:A2:03:74:AD:0D

    Signature Algorithm: sha256WithRSAEncryption
         a8:a6:13:36:28:a2:01:8f:16:58:48:2e:fd:59:86:bf:f0:94:
         90:17:98:a7:39:d8:df:74:a0:46:8d:61:e6:d1:45:60:84:5e:
         a9:d0:1d:03:3d:a5:47:85:80:f9:86:a0:80:a6:bf:ce:80:f4:
         bc:e7:2d:c3:bd:c6:ae:ef:fc:ae:90:e0:28:dd:b5:85:b7:9d:
         97:b0:93:d6:da:29:c0:21:0a:30:6e:6d:75:50:ff:05:5c:56:
         63:5e:17:aa:fc:56:8c:61:f1:e6:ba:10:d2:06:4a:49:5b:c0:
         78:37:c6:3c:08:6f:3d:f2:c5:2a:04:f6:d7:8a:9c:7f:80:dd:
         1a:29:60:09:97:85:41:d9:e6:c1:72:17:4c:08:48:f4:a0:96:
         aa:7b:54:da:d4:91:fe:be:3d:8d:54:20:17:f8:b8:95:1d:cc:
         cb:b4:c1:1a:2d:0a:5f:54:7e:db:90:ab:e3:cf:0e:00:00:30:
         aa:00:3a:c5:b5:b5:f9:3e:de:0e:04:e6:f8:f0:d3:b5:5a:6a:
         8d:7c:7b:5d:37:da:4e:70:10:1f:eb:f1:93:f1:32:da:99:c1:
         38:fc:f0:52:8b:4c:51:cf:ad:e7:23:af:11:d7:e4:ac:f5:3f:
         18:b9:35:ae:20:d0:65:bc:d8:ad:34:87:f8:0b:93:02:db:a4:
         57:fc:c3:a9
-----BEGIN CERTIFICATE-----
MIIDSjCCAjKgAwIBAgIEEjRWejANBgkqhkiG9w0BAQsFADAnMSUwIwYDVQQDFBxT
UksxX3NoYTI1Nl8yMDQ4XzY1NTM3X3YzX2NhMB4XDTIzMDUwNDIyMDg0M1oXDTMz
MDUwMTIyMDg0M1owKjEoMCYGA1UEAxQfSU1HMV8xX3NoYTI1Nl8yMDQ4XzY1NTM3
X3YzX3VzcjCCASIwDQYJKoZIhvcNAQEBBQADggEPADCCAQoCggEBALonDgMKU0/L
0wRsqbnFqjgTtbTE5Z1g42iKgMLVtQu3RC2C9d4HyfXWBVIbFreSUoPoYN/rvCJ4
+WZzJCYJt1RR8P/6fzba1iEd/y7r85QWZZeUTX+OppiTbNzBLpKM2N6Ve3KTp+l2
OJdi3R2D/2Eh2xbJ1CKqJYZ1kwksPrf1IRTkoI5THqObTNJGsZKbhGxzmdjLbbby
1VHQ7rAueUgHbodsRw2ifgVGZH8YFruGSOWEFshfFbeGj61dcFlkDSQXwKlLzQg+
dpZnk2BG4xKWv4d7NDvknAl1Hchnl54IvSVZ42pishZiSdDemZzHj0CfrPp+7TiV
pdI7fRfQbj0CAwEAAaN7MHkwCQYDVR0TBAIwADAsBglghkgBhvhCAQ0EHxYdT3Bl
blNTTCBHZW5lcmF0ZWQgQ2VydGlmaWNhdGUwHQYDVR0OBBYEFDNQagL6xNRKC94K
nkUqBYC+/tzMMB8GA1UdIwQYMBaAFP4aAyyz28gvb0ixv4PSJqIDdK0NMA0GCSqG
SIb3DQEBCwUAA4IBAQCophM2KKIBjxZYSC79WYa/8JSQF5inOdjfdKBGjWHm0UVg
hF6p0B0DPaVHhYD5hqCApr/OgPS85y3Dvcau7/yukOAo3bWFt52XsJPW2inAIQow
bm11UP8FXFZjXheq/FaMYfHmuhDSBkpJW8B4N8Y8CG898sUqBPbXipx/gN0aKWAJ
l4VB2ebBchdMCEj0oJaqe1Ta1JH+vj2NVCAX+LiVHczLtMEaLQpfVH7bkKvjzw4A
ADCqADrFtbX5Pt4OBOb48NO1WmqNfHtdN9pOcBAf6/GT8TLamcE4/PBSi0xRz63n
I68R1+Ss9T8YuTWuINBlvNitNIf4C5MC26RX/MOp
-----END CERTIFICATE-----
