Certificate:
    Data:
        Version: 3 (0x2)
        Serial Number: 305419898 (0x1234567a)
        Signature Algorithm: ecdsa-with-SHA256
        Issuer: CN=SRK1_sha256_secp521r1_v3_ca
        Validity
            Not Before: Sep  1 11:55:13 2023 GMT
            Not After : Aug 29 11:55:13 2033 GMT
        Subject: CN=IMG1_1_sha256_secp521r1_v3_usr
        Subject Public Key Info:
            Public Key Algorithm: id-ecPublicKey
                Public-Key: (521 bit)
                pub:
                    04:00:ad:b4:86:6a:86:01:a3:af:39:df:4e:63:79:
                    76:73:9c:ff:7c:e6:ab:1c:83:fb:9c:5a:6a:64:52:
                    10:19:a5:71:7b:cb:2b:82:f1:80:94:12:87:8d:35:
                    e2:d6:99:f0:e5:00:0f:5a:0f:49:db:2d:9a:97:fc:
                    f4:dc:ca:e4:41:62:a9:01:1a:93:b0:45:4b:6f:77:
                    ba:fc:cd:1e:32:b0:b4:6d:fe:5d:3d:e0:e2:47:07:
                    18:42:e6:47:59:a3:fc:4c:ce:a1:10:cb:5d:0e:9d:
                    af:94:80:8c:ba:24:7d:1b:68:ff:a8:e8:4f:54:2f:
                    89:dd:89:63:ae:50:74:f2:d5:3c:48:9c:5d
                ASN1 OID: secp521r1
                NIST CURVE: P-521
        X509v3 extensions:
            X509v3 Basic Constraints: 
                CA:FALSE
            Netscape Comment: 
                OpenSSL Generated Certificate
            X509v3 Subject Key Identifier: 
                AB:63:06:2C:94:6E:EF:CC:3D:76:1B:83:77:0B:7A:D7:FA:15:88:D5
            X509v3 Authority Key Identifier: 
                keyid:EA:5B:0F:2B:3F:1F:CA:FC:E0:00:3C:24:C6:27:9F:EF:39:E2:9C:D1

    Signature Algorithm: ecdsa-with-SHA256
         30:81:88:02:42:01:7b:65:25:42:26:00:b4:94:79:05:a9:c0:
         2e:7f:72:b3:d7:0c:d1:e7:ac:6f:ee:92:1c:6b:fc:30:3e:ae:
         bf:f1:6e:92:73:8e:06:f9:18:94:0c:56:32:79:54:77:7b:96:
         cd:fb:87:f3:13:d7:df:e4:a9:bc:93:92:ee:11:90:b4:29:02:
         42:01:28:6a:a6:8c:27:cf:d2:fa:ea:dc:3f:5a:96:9f:ee:a2:
         f8:92:5b:0f:03:d5:e6:1e:c3:c7:35:68:e0:54:7b:f2:db:d2:
         51:8a:5f:2f:9f:f3:2d:3f:cc:d7:bc:0c:f8:44:8d:34:4b:ce:
         14:81:63:30:fc:f2:b6:7b:a2:b3:86:66:14
-----BEGIN CERTIFICATE-----
MIICRDCCAaWgAwIBAgIEEjRWejAKBggqhkjOPQQDAjAmMSQwIgYDVQQDFBtTUksx
X3NoYTI1Nl9zZWNwNTIxcjFfdjNfY2EwHhcNMjMwOTAxMTE1NTEzWhcNMzMwODI5
MTE1NTEzWjApMScwJQYDVQQDFB5JTUcxXzFfc2hhMjU2X3NlY3A1MjFyMV92M191
c3IwgZswEAYHKoZIzj0CAQYFK4EEACMDgYYABACttIZqhgGjrznfTmN5dnOc/3zm
qxyD+5xaamRSEBmlcXvLK4LxgJQSh4014taZ8OUAD1oPSdstmpf89NzK5EFiqQEa
k7BFS293uvzNHjKwtG3+XT3g4kcHGELmR1mj/EzOoRDLXQ6dr5SAjLokfRto/6jo
T1Qvid2JY65QdPLVPEicXaN7MHkwCQYDVR0TBAIwADAsBglghkgBhvhCAQ0EHxYd
T3BlblNTTCBHZW5lcmF0ZWQgQ2VydGlmaWNhdGUwHQYDVR0OBBYEFKtjBiyUbu/M
PXYbg3cLetf6FYjVMB8GA1UdIwQYMBaAFOpbDys/H8r84AA8JMYnn+854pzRMAoG
CCqGSM49BAMCA4GMADCBiAJCAXtlJUImALSUeQWpwC5/crPXDNHnrG/ukhxr/DA+
rr/xbpJzjgb5GJQMVjJ5VHd7ls37h/MT19/kqbyTku4RkLQpAkIBKGqmjCfP0vrq
3D9alp/uoviSWw8D1eYew8c1aOBUe/Lb0lGKXy+f8y0/zNe8DPhEjTRLzhSBYzD8
8rZ7orOGZhQ=
-----END CERTIFICATE-----
