Certificate:
    Data:
        Version: 3 (0x2)
        Serial Number: 305419901 (0x1234567d)
    Signature Algorithm: sha256WithRSAEncryption
        Issuer: CN=SRK2_sha256_2048_65537_v3_ca
        Validity
            Not Before: Aug  8 05:36:06 2019 GMT
            Not After : Aug  7 05:36:06 2022 GMT
        Subject: CN=IMG2_1_sha256_2048_65537_v3_usr
        Subject Public Key Info:
            Public Key Algorithm: rsaEncryption
                Public-Key: (2048 bit)
                Modulus:
                    00:bb:8a:d1:e8:dd:62:da:9e:9f:7b:39:88:23:9d:
                    8e:53:cc:98:6b:7f:f9:68:5e:7c:a8:e9:da:63:f4:
                    04:13:ed:b3:8a:1f:83:6e:d9:cf:81:bb:78:c1:76:
                    a8:64:42:07:9f:56:5e:5a:f0:8b:7e:99:c4:1d:5d:
                    5e:7b:f6:bc:df:85:b6:8b:c3:13:00:80:64:a3:e9:
                    db:dc:5a:36:59:da:f0:d3:f5:fe:03:63:9d:a3:c6:
                    1f:8e:d0:03:5b:b7:12:04:ed:85:41:f6:4b:3c:42:
                    d2:66:80:43:5c:fa:43:81:9d:a3:c9:6c:9c:42:60:
                    b4:04:ca:9e:d0:16:d8:08:e2:8b:72:fb:00:20:6d:
                    9a:8f:dc:25:7f:9c:28:34:dd:36:71:55:2f:ff:f2:
                    19:81:1f:de:27:8a:6d:08:5e:ab:d1:20:17:40:ee:
                    44:42:b9:6e:1e:81:fa:66:78:db:d7:83:f5:1d:85:
                    85:be:f0:6f:08:40:00:fa:99:8e:95:74:75:8b:7b:
                    9e:e4:72:c0:6e:53:9b:4b:da:60:fd:4b:fc:86:e1:
                    0d:8f:26:d4:14:01:17:c3:86:a2:b1:9f:0b:c8:18:
                    ce:01:68:8e:ab:c7:80:1a:e8:7e:24:89:4e:8d:d8:
                    62:3b:d9:77:c5:ba:b3:a5:4c:ed:f9:88:08:45:dd:
                    c8:d3
                Exponent: 65537 (0x10001)
        X509v3 extensions:
            X509v3 Basic Constraints: 
                CA:FALSE
            Netscape Comment: 
                OpenSSL Generated Certificate
            X509v3 Subject Key Identifier: 
                3C:35:A4:6F:51:D1:1F:49:C9:E5:F7:49:FA:D4:09:02:F3:CB:65:51
            X509v3 Authority Key Identifier: 
                keyid:8F:7C:C1:5B:0B:CC:91:31:A1:3B:F5:44:01:35:97:3D:50:95:4D:88

    Signature Algorithm: sha256WithRSAEncryption
         1f:9b:bc:3e:21:bb:6d:41:fc:27:c8:24:92:bf:6b:25:d6:7b:
         e9:70:ed:5c:39:cc:69:be:05:15:b7:80:ab:1e:ae:28:f1:47:
         70:11:13:66:d1:7c:71:82:40:9b:e3:c4:eb:b2:1b:be:cf:b5:
         34:37:88:c8:17:4f:72:43:8c:61:6a:aa:79:65:8e:ef:5a:d6:
         e8:31:05:1b:c6:59:25:7d:98:cc:dc:6f:1a:dc:97:23:61:e5:
         ed:6e:63:cf:ee:68:09:ff:29:05:53:f7:a9:33:38:0b:16:34:
         0e:86:e1:7f:8a:52:cd:d7:fb:6c:7e:f0:58:ce:5a:04:63:66:
         e1:67:42:ef:81:37:6b:9d:57:b4:5a:72:b6:e6:12:c8:54:77:
         ee:c2:7e:80:a4:42:66:a0:13:9c:21:76:23:2d:8f:15:d9:65:
         c1:17:58:66:a4:8b:f6:a6:5b:e1:2d:31:17:18:8f:ff:20:8b:
         c3:85:b4:15:01:b9:92:92:cb:a2:8e:5e:5d:51:3b:54:97:eb:
         2f:e6:71:33:45:77:0a:db:56:31:f9:75:ef:10:56:7b:87:22:
         7f:d5:14:b9:c9:af:a2:af:0f:81:07:c9:92:4e:09:c7:94:44:
         66:4e:8f:4f:43:a7:9a:c4:85:ae:fc:b3:5f:1b:67:1f:da:a9:
         06:18:45:34
-----BEGIN CERTIFICATE-----
MIIDSjCCAjKgAwIBAgIEEjRWfTANBgkqhkiG9w0BAQsFADAnMSUwIwYDVQQDFBxT
UksyX3NoYTI1Nl8yMDQ4XzY1NTM3X3YzX2NhMB4XDTE5MDgwODA1MzYwNloXDTIy
MDgwNzA1MzYwNlowKjEoMCYGA1UEAxQfSU1HMl8xX3NoYTI1Nl8yMDQ4XzY1NTM3
X3YzX3VzcjCCASIwDQYJKoZIhvcNAQEBBQADggEPADCCAQoCggEBALuK0ejdYtqe
n3s5iCOdjlPMmGt/+WhefKjp2mP0BBPts4ofg27Zz4G7eMF2qGRCB59WXlrwi36Z
xB1dXnv2vN+FtovDEwCAZKPp29xaNlna8NP1/gNjnaPGH47QA1u3EgTthUH2SzxC
0maAQ1z6Q4Gdo8lsnEJgtATKntAW2Ajii3L7ACBtmo/cJX+cKDTdNnFVL//yGYEf
3ieKbQheq9EgF0DuREK5bh6B+mZ429eD9R2Fhb7wbwhAAPqZjpV0dYt7nuRywG5T
m0vaYP1L/IbhDY8m1BQBF8OGorGfC8gYzgFojqvHgBrofiSJTo3YYjvZd8W6s6VM
7fmICEXdyNMCAwEAAaN7MHkwCQYDVR0TBAIwADAsBglghkgBhvhCAQ0EHxYdT3Bl
blNTTCBHZW5lcmF0ZWQgQ2VydGlmaWNhdGUwHQYDVR0OBBYEFDw1pG9R0R9JyeX3
SfrUCQLzy2VRMB8GA1UdIwQYMBaAFI98wVsLzJExoTv1RAE1lz1QlU2IMA0GCSqG
SIb3DQEBCwUAA4IBAQAfm7w+IbttQfwnyCSSv2sl1nvpcO1cOcxpvgUVt4CrHq4o
8UdwERNm0XxxgkCb48Trshu+z7U0N4jIF09yQ4xhaqp5ZY7vWtboMQUbxlklfZjM
3G8a3JcjYeXtbmPP7mgJ/ykFU/epMzgLFjQOhuF/ilLN1/tsfvBYzloEY2bhZ0Lv
gTdrnVe0WnK25hLIVHfuwn6ApEJmoBOcIXYjLY8V2WXBF1hmpIv2plvhLTEXGI//
IIvDhbQVAbmSksuijl5dUTtUl+sv5nEzRXcK21Yx+XXvEFZ7hyJ/1RS5ya+irw+B
B8mSTgnHlERmTo9PQ6eaxIWu/LNfG2cf2qkGGEU0
-----END CERTIFICATE-----
