Certificate:
    Data:
        Version: 3 (0x2)
        Serial Number: 429496731 (0x1999999b)
    Signature Algorithm: sha256WithRSAEncryption
        Issuer: CN=SRK1_sha256_2048_65537_v3_ca
        Validity
            Not Before: Nov 20 10:41:34 2019 GMT
            Not After : Nov 17 10:41:34 2029 GMT
        Subject: CN=IMG1_1_sha256_2048_65537_v3_usr
        Subject Public Key Info:
            Public Key Algorithm: rsaEncryption
                Public-Key: (2048 bit)
                Modulus:
                    00:af:db:0e:ef:70:30:57:22:5b:f8:37:7e:fa:e3:
                    c2:3e:fe:e0:96:9a:ed:0d:8b:4e:a5:0b:dc:36:74:
                    e8:fd:aa:85:68:ff:8c:8b:35:39:da:90:e1:19:ea:
                    72:d5:d3:bd:1f:0d:c6:24:14:16:96:be:b5:7c:49:
                    01:91:66:41:18:ce:dd:ae:85:79:5a:0c:3e:1e:2d:
                    c0:d7:3c:70:f9:52:bc:03:27:1b:2a:65:20:fb:8e:
                    34:1e:15:54:8a:11:eb:c5:20:b3:c5:8d:11:55:8d:
                    d8:29:32:cf:b6:95:e9:64:58:cd:59:4f:a6:ae:5c:
                    2e:1e:e1:e8:ff:ce:f2:4a:6d:d5:95:c2:61:af:22:
                    55:01:32:25:6b:48:59:c9:61:b2:d9:5d:e3:db:17:
                    56:6c:fd:da:2e:79:28:40:06:97:05:16:51:f9:5c:
                    26:77:0e:ba:56:81:5a:59:a1:98:61:36:83:56:8c:
                    a3:68:ce:35:7f:1e:23:c4:50:e9:f0:09:3c:56:0e:
                    b6:85:05:26:a2:34:3c:2d:da:26:5e:e7:c2:ea:2a:
                    3e:e2:b6:bd:d1:9b:b6:bb:06:90:76:a3:72:18:f6:
                    5c:91:99:0d:c8:c5:de:6c:cb:f5:87:dc:1e:5a:62:
                    35:29:11:8e:8b:90:8a:ec:de:57:cf:c1:88:19:e0:
                    ce:93
                Exponent: 65537 (0x10001)
        X509v3 extensions:
            X509v3 Basic Constraints: 
                CA:FALSE
            Netscape Comment: 
                OpenSSL Generated Certificate
            X509v3 Subject Key Identifier: 
                F9:68:DC:99:E5:2F:AA:47:4D:87:40:55:57:B4:1E:D3:DA:5C:4A:B9
            X509v3 Authority Key Identifier: 
                keyid:B8:5D:92:D5:64:F7:27:79:AB:2A:A6:23:9F:27:0A:BD:4C:93:54:D7

    Signature Algorithm: sha256WithRSAEncryption
         52:ee:92:f3:2c:95:7a:21:40:0a:03:d4:36:61:68:4c:d0:96:
         58:85:d7:b2:3b:ce:91:fe:0d:11:fd:8f:ce:8d:44:2f:c0:b8:
         3f:ee:68:d0:5e:f6:a1:b9:ad:56:ec:3f:cd:2a:b7:82:f5:6b:
         d2:df:7e:59:6b:f7:47:82:d8:5e:86:56:d6:0f:0c:da:7f:26:
         3f:2d:15:24:71:a8:5c:85:bf:b5:04:a8:c7:ab:bd:72:16:25:
         c4:43:60:ec:96:00:59:c6:ec:64:5e:13:ab:b5:6b:88:37:58:
         99:1f:7b:67:4d:9d:36:b4:37:24:c1:ab:08:2c:87:00:40:7b:
         10:97:a7:73:b0:61:20:6c:c6:6a:4f:ab:f5:fc:86:75:42:dd:
         fd:f3:20:2f:c7:69:24:29:a1:fe:18:ff:d6:d9:a6:c3:fa:0f:
         16:0d:9f:ed:ec:cb:55:99:4b:ab:a7:1a:f2:02:36:4f:5e:29:
         aa:61:b7:a8:2b:aa:90:8e:d8:5d:eb:f9:91:bd:76:82:94:35:
         35:f2:a6:89:1f:7f:fa:51:4d:aa:00:39:2a:c8:26:b3:7f:77:
         1f:55:a5:69:05:1d:1f:65:97:8c:67:c1:c7:3f:07:d2:cd:84:
         9e:f3:c4:a2:35:61:58:be:47:96:ab:51:1a:1a:6c:04:81:43:
         9a:0e:59:22
-----BEGIN CERTIFICATE-----
MIIDSjCCAjKgAwIBAgIEGZmZmzANBgkqhkiG9w0BAQsFADAnMSUwIwYDVQQDFBxT
UksxX3NoYTI1Nl8yMDQ4XzY1NTM3X3YzX2NhMB4XDTE5MTEyMDEwNDEzNFoXDTI5
MTExNzEwNDEzNFowKjEoMCYGA1UEAxQfSU1HMV8xX3NoYTI1Nl8yMDQ4XzY1NTM3
X3YzX3VzcjCCASIwDQYJKoZIhvcNAQEBBQADggEPADCCAQoCggEBAK/bDu9wMFci
W/g3fvrjwj7+4Jaa7Q2LTqUL3DZ06P2qhWj/jIs1OdqQ4RnqctXTvR8NxiQUFpa+
tXxJAZFmQRjO3a6FeVoMPh4twNc8cPlSvAMnGyplIPuONB4VVIoR68Ugs8WNEVWN
2Ckyz7aV6WRYzVlPpq5cLh7h6P/O8kpt1ZXCYa8iVQEyJWtIWclhstld49sXVmz9
2i55KEAGlwUWUflcJncOulaBWlmhmGE2g1aMo2jONX8eI8RQ6fAJPFYOtoUFJqI0
PC3aJl7nwuoqPuK2vdGbtrsGkHajchj2XJGZDcjF3mzL9YfcHlpiNSkRjouQiuze
V8/BiBngzpMCAwEAAaN7MHkwCQYDVR0TBAIwADAsBglghkgBhvhCAQ0EHxYdT3Bl
blNTTCBHZW5lcmF0ZWQgQ2VydGlmaWNhdGUwHQYDVR0OBBYEFPlo3JnlL6pHTYdA
VVe0HtPaXEq5MB8GA1UdIwQYMBaAFLhdktVk9yd5qyqmI58nCr1Mk1TXMA0GCSqG
SIb3DQEBCwUAA4IBAQBS7pLzLJV6IUAKA9Q2YWhM0JZYhdeyO86R/g0R/Y/OjUQv
wLg/7mjQXvahua1W7D/NKreC9WvS335Za/dHgthehlbWDwzafyY/LRUkcahchb+1
BKjHq71yFiXEQ2DslgBZxuxkXhOrtWuIN1iZH3tnTZ02tDckwasILIcAQHsQl6dz
sGEgbMZqT6v1/IZ1Qt398yAvx2kkKaH+GP/W2abD+g8WDZ/t7MtVmUurpxryAjZP
XimqYbeoK6qQjthd6/mRvXaClDU18qaJH3/6UU2qADkqyCazf3cfVaVpBR0fZZeM
Z8HHPwfSzYSe88SiNWFYvkeWq1EaGmwEgUOaDlki
-----END CERTIFICATE-----
