Certificate:
    Data:
        Version: 3 (0x2)
        Serial Number: 429496730 (0x1999999a)
    Signature Algorithm: sha256WithRSAEncryption
        Issuer: CN=SRK1_sha256_2048_65537_v3_ca
        Validity
            Not Before: Nov 20 10:41:33 2019 GMT
            Not After : Nov 17 10:41:33 2029 GMT
        Subject: CN=CSF1_1_sha256_2048_65537_v3_usr
        Subject Public Key Info:
            Public Key Algorithm: rsaEncryption
                Public-Key: (2048 bit)
                Modulus:
                    00:cc:ea:3c:5b:1c:d9:6d:9f:33:7b:19:14:fc:fc:
                    72:15:d2:dd:76:9c:ea:9c:9e:28:01:a9:6f:9a:92:
                    57:85:59:79:13:6a:26:b0:8f:ba:2a:46:55:44:4a:
                    f4:11:68:0c:50:72:a0:14:0b:62:91:e5:56:3f:40:
                    55:3c:d7:23:3e:3a:d0:10:ba:95:1d:d6:79:c1:8b:
                    0a:70:27:3c:0a:60:7d:d9:7f:9e:1d:3b:d5:60:61:
                    9c:c9:e2:b7:1a:ab:36:62:f2:06:11:84:e9:25:de:
                    d5:70:54:f1:40:55:db:99:9b:e3:35:04:47:00:a2:
                    3d:c4:29:8f:cb:90:47:ae:ac:63:78:38:5e:b8:67:
                    67:7f:9b:0a:fd:98:4e:5b:f5:82:25:2f:f0:b8:40:
                    fa:c0:3c:da:f1:a0:92:a3:e8:ff:17:97:2a:b3:09:
                    2a:a4:62:a1:b6:20:94:a2:d1:be:7d:79:ed:dd:b3:
                    93:a8:a9:57:a9:b5:8b:7f:90:33:27:71:45:79:35:
                    ac:d8:72:5d:94:e1:3d:3e:dd:f0:74:35:6b:a4:10:
                    ce:24:c7:fb:b7:c0:6f:09:d9:24:d1:14:c7:6e:a4:
                    01:63:c3:fa:c9:0b:0c:71:12:b3:3c:46:92:43:c3:
                    33:0b:86:37:df:10:f2:d1:04:a5:5f:92:46:77:53:
                    cb:b1
                Exponent: 65537 (0x10001)
        X509v3 extensions:
            X509v3 Basic Constraints: 
                CA:FALSE
            Netscape Comment: 
                OpenSSL Generated Certificate
            X509v3 Subject Key Identifier: 
                CF:06:97:A6:94:17:E5:07:80:E5:7D:2E:12:F5:FA:93:74:04:87:E0
            X509v3 Authority Key Identifier: 
                keyid:B8:5D:92:D5:64:F7:27:79:AB:2A:A6:23:9F:27:0A:BD:4C:93:54:D7

    Signature Algorithm: sha256WithRSAEncryption
         56:c7:5c:0a:83:2d:33:18:d1:d4:40:b3:0a:76:83:35:12:1a:
         83:c8:26:3d:92:69:03:6e:8a:2e:c5:a0:fa:8b:b5:62:8a:f4:
         15:c0:9c:67:da:c0:19:9e:e4:60:96:de:e9:2d:ac:4c:9f:c2:
         f2:41:95:d9:47:24:73:ce:a3:1f:51:e3:d5:c9:70:a5:9c:f1:
         b3:b9:55:5f:7c:c8:92:e6:15:c3:0b:46:5b:a2:a4:50:2f:c5:
         54:bb:7e:c2:46:a6:a3:18:2e:14:32:d1:30:50:4d:ba:ca:77:
         e5:34:80:8d:d4:90:0b:0f:cb:f1:34:64:44:ac:6f:bc:6e:c1:
         63:09:a4:fd:29:7a:f0:79:81:a1:0d:04:78:70:bc:23:12:51:
         ac:2a:56:36:9d:7f:31:94:7d:38:7a:e9:da:e8:e4:4d:2d:69:
         51:92:ee:9b:cb:34:90:f3:59:d1:60:94:04:e2:06:ed:0e:f8:
         25:2d:9f:ed:94:ab:6c:9a:2f:fd:fc:85:ef:b8:79:07:77:40:
         c9:4d:97:20:53:cc:6a:c3:d3:7b:4b:d6:e3:a7:ea:70:3c:be:
         f8:c3:b7:20:64:97:78:9c:c1:6f:4a:3e:38:8a:eb:df:d4:a3:
         f2:d1:4c:18:a1:cd:4f:6f:4b:e6:c9:30:4d:7f:86:1b:ae:23:
         de:e8:c9:b8
-----BEGIN CERTIFICATE-----
MIIDSjCCAjKgAwIBAgIEGZmZmjANBgkqhkiG9w0BAQsFADAnMSUwIwYDVQQDFBxT
UksxX3NoYTI1Nl8yMDQ4XzY1NTM3X3YzX2NhMB4XDTE5MTEyMDEwNDEzM1oXDTI5
MTExNzEwNDEzM1owKjEoMCYGA1UEAxQfQ1NGMV8xX3NoYTI1Nl8yMDQ4XzY1NTM3
X3YzX3VzcjCCASIwDQYJKoZIhvcNAQEBBQADggEPADCCAQoCggEBAMzqPFsc2W2f
M3sZFPz8chXS3Xac6pyeKAGpb5qSV4VZeRNqJrCPuipGVURK9BFoDFByoBQLYpHl
Vj9AVTzXIz460BC6lR3WecGLCnAnPApgfdl/nh071WBhnMnitxqrNmLyBhGE6SXe
1XBU8UBV25mb4zUERwCiPcQpj8uQR66sY3g4XrhnZ3+bCv2YTlv1giUv8LhA+sA8
2vGgkqPo/xeXKrMJKqRiobYglKLRvn157d2zk6ipV6m1i3+QMydxRXk1rNhyXZTh
PT7d8HQ1a6QQziTH+7fAbwnZJNEUx26kAWPD+skLDHESszxGkkPDMwuGN98Q8tEE
pV+SRndTy7ECAwEAAaN7MHkwCQYDVR0TBAIwADAsBglghkgBhvhCAQ0EHxYdT3Bl
blNTTCBHZW5lcmF0ZWQgQ2VydGlmaWNhdGUwHQYDVR0OBBYEFM8Gl6aUF+UHgOV9
LhL1+pN0BIfgMB8GA1UdIwQYMBaAFLhdktVk9yd5qyqmI58nCr1Mk1TXMA0GCSqG
SIb3DQEBCwUAA4IBAQBWx1wKgy0zGNHUQLMKdoM1EhqDyCY9kmkDboouxaD6i7Vi
ivQVwJxn2sAZnuRglt7pLaxMn8LyQZXZRyRzzqMfUePVyXClnPGzuVVffMiS5hXD
C0ZboqRQL8VUu37CRqajGC4UMtEwUE26ynflNICN1JALD8vxNGRErG+8bsFjCaT9
KXrweYGhDQR4cLwjElGsKlY2nX8xlH04euna6ORNLWlRku6byzSQ81nRYJQE4gbt
DvglLZ/tlKtsmi/9/IXvuHkHd0DJTZcgU8xqw9N7S9bjp+pwPL74w7cgZJd4nMFv
Sj44iuvf1KPy0UwYoc1Pb0vmyTBNf4YbriPe6Mm4
-----END CERTIFICATE-----
