Certificate:
    Data:
        Version: 3 (0x2)
        Serial Number: 305419897 (0x12345679)
        Signature Algorithm: sha256WithRSAEncryption
        Issuer: CN=SRK1_sha256_2048_65537_v3_ca
        Validity
            Not Before: May  3 13:47:09 2023 GMT
            Not After : Apr 30 13:47:09 2033 GMT
        Subject: CN=CSF1_1_sha256_2048_65537_v3_usr
        Subject Public Key Info:
            Public Key Algorithm: rsaEncryption
                RSA Public-Key: (2048 bit)
                Modulus:
                    00:c6:59:48:8e:f3:b6:1d:f3:84:21:01:51:cf:07:
                    1e:3b:b0:10:f0:82:5a:84:3e:e8:1a:83:67:f5:ba:
                    1b:21:db:44:b7:24:f8:3c:51:79:22:37:d2:46:ae:
                    65:d7:b6:6d:57:a1:65:d3:31:62:08:2f:59:27:bd:
                    ad:bc:20:5c:0f:d8:43:68:f9:5a:b3:cf:74:63:95:
                    be:23:71:11:7f:95:83:cd:32:d3:d7:b9:1d:a9:7e:
                    a9:26:18:3e:7b:e4:2d:8d:27:0c:84:e5:61:e7:04:
                    6d:54:2c:91:e6:54:73:4c:72:32:6c:6c:68:93:32:
                    b9:2c:4b:a5:34:3f:ce:aa:39:2a:81:a2:2b:4b:91:
                    d8:cc:a8:77:a2:11:93:89:50:4d:d2:a3:44:a7:d7:
                    72:83:61:f2:69:28:99:1f:5a:c8:46:37:9e:21:e7:
                    91:6c:9d:c2:4f:11:94:ed:98:98:9e:d1:09:83:2c:
                    c2:89:8c:76:56:df:ec:c0:fb:77:11:4e:1b:bd:44:
                    01:9f:f1:b4:a4:c5:df:a6:58:74:6c:e7:61:3e:72:
                    bd:13:a6:13:ee:fa:c9:0e:f2:b2:dc:75:af:b4:4f:
                    18:f3:4b:98:44:4d:d9:b9:6a:02:a5:9d:6f:fe:22:
                    0e:bb:f5:a0:6d:1b:bd:7f:b7:51:8a:e3:aa:71:bd:
                    70:f1
                Exponent: 65537 (0x10001)
        X509v3 extensions:
            X509v3 Basic Constraints: 
                CA:FALSE
            Netscape Comment: 
                OpenSSL Generated Certificate
            X509v3 Subject Key Identifier: 
                69:08:0E:2B:64:A0:DA:FB:8B:91:0E:65:70:26:6F:4A:FA:55:33:90
            X509v3 Authority Key Identifier: 
                keyid:7A:9A:77:78:43:D7:D8:A3:4D:B9:EB:63:B2:48:E1:4D:C4:32:65:FB

    Signature Algorithm: sha256WithRSAEncryption
         54:83:0b:69:8f:a9:c2:cb:6b:4f:42:e6:ab:7c:d4:7e:ea:4c:
         26:e9:6a:86:a0:7d:5e:6c:04:98:a9:31:ee:f9:00:1a:aa:e7:
         e5:83:39:6d:43:92:13:87:b8:4e:f8:f3:e2:f0:1d:17:76:3c:
         a1:0c:5e:93:ad:18:c9:a0:dd:64:61:f5:71:d5:27:be:9a:62:
         41:f8:31:8c:b4:bc:3b:ce:d4:ad:0f:97:4e:ee:ad:7e:c7:a5:
         01:76:8a:7c:a8:22:29:b7:ba:d6:90:c3:fd:8f:0b:05:3b:1c:
         f9:30:e2:7e:b2:1f:90:8a:83:a7:2a:6e:37:d6:0b:56:00:a6:
         a3:3e:0b:71:23:03:47:93:a8:32:37:1e:be:b5:d8:b0:60:07:
         66:d4:b1:c5:8b:db:8f:83:b1:81:f7:bb:d1:fd:cb:94:ed:10:
         2f:9a:22:e6:69:f6:de:9c:09:d5:30:bf:3b:6a:43:42:51:90:
         19:24:4e:2f:54:b6:ab:c0:5a:bd:b8:4e:9f:c2:3a:f5:8e:07:
         fd:dc:99:a8:b7:65:7c:46:86:94:11:2b:70:ba:da:90:d3:fa:
         60:a9:8b:6e:81:c6:45:4d:04:4c:92:2c:56:a9:09:4e:79:4b:
         3f:7a:ed:93:e4:45:16:09:52:3a:49:18:e5:4e:6d:86:13:03:
         78:4b:e4:06
-----BEGIN CERTIFICATE-----
MIIDSjCCAjKgAwIBAgIEEjRWeTANBgkqhkiG9w0BAQsFADAnMSUwIwYDVQQDFBxT
UksxX3NoYTI1Nl8yMDQ4XzY1NTM3X3YzX2NhMB4XDTIzMDUwMzEzNDcwOVoXDTMz
MDQzMDEzNDcwOVowKjEoMCYGA1UEAxQfQ1NGMV8xX3NoYTI1Nl8yMDQ4XzY1NTM3
X3YzX3VzcjCCASIwDQYJKoZIhvcNAQEBBQADggEPADCCAQoCggEBAMZZSI7zth3z
hCEBUc8HHjuwEPCCWoQ+6BqDZ/W6GyHbRLck+DxReSI30kauZde2bVehZdMxYggv
WSe9rbwgXA/YQ2j5WrPPdGOVviNxEX+Vg80y09e5Hal+qSYYPnvkLY0nDITlYecE
bVQskeZUc0xyMmxsaJMyuSxLpTQ/zqo5KoGiK0uR2Myod6IRk4lQTdKjRKfXcoNh
8mkomR9ayEY3niHnkWydwk8RlO2YmJ7RCYMswomMdlbf7MD7dxFOG71EAZ/xtKTF
36ZYdGznYT5yvROmE+76yQ7ystx1r7RPGPNLmERN2blqAqWdb/4iDrv1oG0bvX+3
UYrjqnG9cPECAwEAAaN7MHkwCQYDVR0TBAIwADAsBglghkgBhvhCAQ0EHxYdT3Bl
blNTTCBHZW5lcmF0ZWQgQ2VydGlmaWNhdGUwHQYDVR0OBBYEFGkIDitkoNr7i5EO
ZXAmb0r6VTOQMB8GA1UdIwQYMBaAFHqad3hD19ijTbnrY7JI4U3EMmX7MA0GCSqG
SIb3DQEBCwUAA4IBAQBUgwtpj6nCy2tPQuarfNR+6kwm6WqGoH1ebASYqTHu+QAa
quflgzltQ5ITh7hO+PPi8B0XdjyhDF6TrRjJoN1kYfVx1Se+mmJB+DGMtLw7ztSt
D5dO7q1+x6UBdop8qCIpt7rWkMP9jwsFOxz5MOJ+sh+QioOnKm431gtWAKajPgtx
IwNHk6gyNx6+tdiwYAdm1LHFi9uPg7GB97vR/cuU7RAvmiLmafbenAnVML87akNC
UZAZJE4vVLarwFq9uE6fwjr1jgf93Jmot2V8RoaUEStwutqQ0/pgqYtugcZFTQRM
kixWqQlOeUs/eu2T5EUWCVI6SRjlTm2GEwN4S+QG
-----END CERTIFICATE-----
