Certificate:
    Data:
        Version: 3 (0x2)
        Serial Number: 305419898 (0x1234567a)
        Signature Algorithm: sha256WithRSAEncryption
        Issuer: CN=SRK1_sha256_2048_65537_v3_ca
        Validity
            Not Before: May  3 13:47:10 2023 GMT
            Not After : Apr 30 13:47:10 2033 GMT
        Subject: CN=IMG1_1_sha256_2048_65537_v3_usr
        Subject Public Key Info:
            Public Key Algorithm: rsaEncryption
                RSA Public-Key: (2048 bit)
                Modulus:
                    00:b6:7c:dd:9a:c6:1b:c4:d5:19:07:fa:ef:47:39:
                    9e:a1:c8:ff:eb:b5:48:5e:a4:51:c2:f2:f6:76:68:
                    c7:d9:06:81:ac:1f:23:8e:64:aa:cf:bc:4d:18:2b:
                    82:f8:9a:ea:49:fc:c1:3a:25:9f:5a:a6:f7:c8:60:
                    4b:a7:4e:a1:ca:c5:35:60:3f:e4:c1:f1:45:64:ba:
                    d6:15:f3:59:6c:4d:45:57:06:37:e7:dc:36:37:ed:
                    ae:f2:c3:f5:24:26:49:77:72:04:b7:0c:dc:a6:2a:
                    91:9d:98:f7:0e:8c:60:ae:bf:cf:75:0b:87:0b:c5:
                    db:e5:97:8e:b9:24:7d:35:09:b6:f8:2c:d5:37:e0:
                    ed:50:b1:45:96:4e:82:4c:d6:74:37:d6:bb:3f:5b:
                    97:86:6f:b1:d1:a3:f0:f7:62:f9:08:27:a4:a1:6d:
                    1c:ca:89:90:72:b9:eb:ef:65:49:fe:b3:86:41:fc:
                    ca:68:b3:12:fa:42:63:82:5a:34:98:de:0c:c6:50:
                    f7:3a:c2:6b:f7:fd:8c:c1:9f:7f:88:e1:68:08:9b:
                    f0:55:2e:e3:87:90:15:59:9b:f0:ca:17:2a:c7:bc:
                    b1:05:e7:8e:55:07:de:64:60:4f:98:28:56:5c:89:
                    e3:f0:65:03:d8:07:0e:e4:22:d7:c6:29:9a:45:b7:
                    f1:ff
                Exponent: 65537 (0x10001)
        X509v3 extensions:
            X509v3 Basic Constraints: 
                CA:FALSE
            Netscape Comment: 
                OpenSSL Generated Certificate
            X509v3 Subject Key Identifier: 
                49:65:20:FA:A0:B3:52:35:9E:5D:B5:A0:67:A7:CF:49:A9:1D:59:7E
            X509v3 Authority Key Identifier: 
                keyid:7A:9A:77:78:43:D7:D8:A3:4D:B9:EB:63:B2:48:E1:4D:C4:32:65:FB

    Signature Algorithm: sha256WithRSAEncryption
         28:4e:bc:05:4f:a8:f1:3c:f3:c4:66:8f:5f:65:30:18:b8:4c:
         43:36:d2:1d:9b:4a:cb:23:0c:69:2f:57:10:5d:9b:fa:8b:73:
         cc:a7:11:da:3d:30:41:82:3a:0b:9d:6e:04:1a:e6:b8:9d:3f:
         f4:47:e0:7f:f3:5d:8c:17:da:18:6e:4e:ae:e4:12:8d:03:6d:
         83:c4:0f:cf:aa:ea:da:fc:12:ee:60:51:63:78:e8:00:f7:cb:
         ee:cd:b2:2a:3f:e3:53:ea:db:ea:c8:3f:6a:53:22:be:ac:5a:
         72:03:27:cd:72:63:01:31:6c:8c:57:4b:a4:69:7e:94:ee:fa:
         19:91:9f:58:54:a0:61:dc:db:64:60:47:0d:cf:4e:32:40:7e:
         28:4d:5d:68:c4:7d:78:ae:1b:07:b0:71:11:0c:0e:76:2a:d3:
         c4:0c:6b:c6:1a:13:4c:ae:7f:21:4b:fd:17:28:35:8a:8c:21:
         c1:fc:22:c2:e8:87:ab:ae:85:5e:fb:26:39:fb:81:d7:75:af:
         95:aa:ff:12:c9:cd:12:ab:f7:8a:6a:ab:f1:39:81:38:52:12:
         c4:94:c9:3c:63:67:48:ec:34:b1:f4:1f:15:b2:5a:0f:93:c1:
         cb:04:df:aa:d8:b6:1e:08:25:e8:33:b9:62:c3:d7:1e:57:7a:
         8c:23:93:20
-----BEGIN CERTIFICATE-----
MIIDSjCCAjKgAwIBAgIEEjRWejANBgkqhkiG9w0BAQsFADAnMSUwIwYDVQQDFBxT
UksxX3NoYTI1Nl8yMDQ4XzY1NTM3X3YzX2NhMB4XDTIzMDUwMzEzNDcxMFoXDTMz
MDQzMDEzNDcxMFowKjEoMCYGA1UEAxQfSU1HMV8xX3NoYTI1Nl8yMDQ4XzY1NTM3
X3YzX3VzcjCCASIwDQYJKoZIhvcNAQEBBQADggEPADCCAQoCggEBALZ83ZrGG8TV
GQf670c5nqHI/+u1SF6kUcLy9nZox9kGgawfI45kqs+8TRgrgvia6kn8wToln1qm
98hgS6dOocrFNWA/5MHxRWS61hXzWWxNRVcGN+fcNjftrvLD9SQmSXdyBLcM3KYq
kZ2Y9w6MYK6/z3ULhwvF2+WXjrkkfTUJtvgs1Tfg7VCxRZZOgkzWdDfWuz9bl4Zv
sdGj8Pdi+QgnpKFtHMqJkHK56+9lSf6zhkH8ymizEvpCY4JaNJjeDMZQ9zrCa/f9
jMGff4jhaAib8FUu44eQFVmb8MoXKse8sQXnjlUH3mRgT5goVlyJ4/BlA9gHDuQi
18YpmkW38f8CAwEAAaN7MHkwCQYDVR0TBAIwADAsBglghkgBhvhCAQ0EHxYdT3Bl
blNTTCBHZW5lcmF0ZWQgQ2VydGlmaWNhdGUwHQYDVR0OBBYEFEllIPqgs1I1nl21
oGenz0mpHVl+MB8GA1UdIwQYMBaAFHqad3hD19ijTbnrY7JI4U3EMmX7MA0GCSqG
SIb3DQEBCwUAA4IBAQAoTrwFT6jxPPPEZo9fZTAYuExDNtIdm0rLIwxpL1cQXZv6
i3PMpxHaPTBBgjoLnW4EGua4nT/0R+B/812MF9oYbk6u5BKNA22DxA/Pqura/BLu
YFFjeOgA98vuzbIqP+NT6tvqyD9qUyK+rFpyAyfNcmMBMWyMV0ukaX6U7voZkZ9Y
VKBh3NtkYEcNz04yQH4oTV1oxH14rhsHsHERDA52KtPEDGvGGhNMrn8hS/0XKDWK
jCHB/CLC6IerroVe+yY5+4HXda+Vqv8Syc0Sq/eKaqvxOYE4UhLElMk8Y2dI7DSx
9B8VsloPk8HLBN+q2LYeCCXoM7liw9ceV3qMI5Mg
-----END CERTIFICATE-----
