Certificate:
    Data:
        Version: 3 (0x2)
        Serial Number: 305419898 (0x1234567a)
    Signature Algorithm: sha256WithRSAEncryption
        Issuer: CN=SRK1_sha256_2048_65537_v3_ca
        Validity
            Not Before: Apr 24 16:20:47 2023 GMT
            Not After : Apr 21 16:20:47 2033 GMT
        Subject: CN=IMG1_1_sha256_2048_65537_v3_usr
        Subject Public Key Info:
            Public Key Algorithm: rsaEncryption
                Public-Key: (2048 bit)
                Modulus:
                    00:ae:ed:d5:34:87:81:d0:ef:b2:c0:52:c4:77:96:
                    9e:4f:dc:5b:cc:60:5a:a0:11:7b:e6:8f:ae:d0:97:
                    a6:7c:de:c1:89:e9:f1:6c:a4:2c:0c:e8:56:79:56:
                    65:65:a5:67:65:58:bc:6a:77:88:43:c9:3d:0f:7c:
                    d3:7d:89:11:da:3e:70:76:93:08:d8:4b:35:6f:2c:
                    0a:a4:5e:93:69:05:d7:55:e9:a7:12:a8:28:56:44:
                    10:08:3d:c0:aa:ac:03:fd:d7:fe:87:f4:91:e7:9e:
                    62:e8:53:46:86:5c:38:67:1b:a8:cb:b8:a8:8d:7b:
                    9d:1b:d8:29:64:75:ba:6a:21:4d:d5:61:32:8b:33:
                    e6:0c:a6:2b:f5:ce:ef:42:a3:fa:c9:33:92:f5:9d:
                    55:a3:c3:61:2b:b5:66:35:37:3d:7f:ff:91:89:4d:
                    e3:09:43:da:38:83:7a:e2:5b:8e:1e:37:26:07:cb:
                    df:5c:80:65:2b:b0:e0:ea:1d:47:ff:97:a3:90:3f:
                    d9:fe:1c:57:b1:a3:6e:61:2f:a0:b6:c9:14:a0:ff:
                    10:78:f0:bb:00:14:4e:7d:f8:f4:30:51:0e:45:4b:
                    52:54:88:35:58:a8:66:09:af:e7:f3:d2:b4:cf:04:
                    a3:ee:7c:54:22:f9:00:9a:0b:c1:f5:4b:9d:e4:60:
                    1b:93
                Exponent: 65537 (0x10001)
        X509v3 extensions:
            X509v3 Basic Constraints: 
                CA:FALSE
            Netscape Comment: 
                OpenSSL Generated Certificate
            X509v3 Subject Key Identifier: 
                29:C8:75:6F:D4:2F:B7:9D:D3:0B:53:F4:32:74:05:5D:47:16:5D:45
            X509v3 Authority Key Identifier: 
                keyid:47:02:B6:D3:0D:05:80:89:08:48:CC:C9:49:FE:79:DD:73:78:75:BD

    Signature Algorithm: sha256WithRSAEncryption
         89:da:ed:7c:f2:b2:dc:f2:e9:ea:77:4f:16:c3:54:cc:15:40:
         0a:a6:25:3d:fa:7f:62:bf:df:32:5f:9e:f2:e0:e6:16:fc:81:
         fa:be:60:7c:7b:99:56:30:16:a1:30:0c:49:f2:13:3d:06:89:
         23:f7:e9:60:95:40:ae:19:68:d2:20:dc:cd:1e:12:25:a4:01:
         da:bd:74:41:9f:64:27:5b:e0:f1:61:60:e3:22:36:68:b6:c4:
         19:31:bc:9c:89:11:0a:84:d5:56:81:77:52:20:e5:f4:fc:f6:
         3c:2b:2d:89:97:df:ab:73:e8:89:f6:3a:74:2c:f3:ce:1f:8b:
         72:e1:c4:84:b0:54:f6:00:57:a6:05:a7:c4:d8:0e:8c:b4:02:
         9f:88:e7:8a:62:1c:88:93:94:ac:31:ea:13:34:10:47:84:68:
         73:81:c7:a2:de:ad:11:0b:32:b7:24:75:b6:e5:f5:be:d0:40:
         c4:9c:09:b7:48:f4:23:01:e0:52:cf:e0:22:29:29:a5:00:fd:
         83:81:82:53:34:d3:18:6d:62:10:1b:0d:87:7b:6e:2a:24:1e:
         fe:9b:72:9f:e5:99:d5:cb:e9:f5:ee:4a:29:02:39:a1:3b:c4:
         75:8b:93:8c:bf:3d:f8:99:b1:35:15:18:af:7e:fb:ac:fc:7e:
         f0:4f:ca:75
-----BEGIN CERTIFICATE-----
MIIDSjCCAjKgAwIBAgIEEjRWejANBgkqhkiG9w0BAQsFADAnMSUwIwYDVQQDFBxT
UksxX3NoYTI1Nl8yMDQ4XzY1NTM3X3YzX2NhMB4XDTIzMDQyNDE2MjA0N1oXDTMz
MDQyMTE2MjA0N1owKjEoMCYGA1UEAxQfSU1HMV8xX3NoYTI1Nl8yMDQ4XzY1NTM3
X3YzX3VzcjCCASIwDQYJKoZIhvcNAQEBBQADggEPADCCAQoCggEBAK7t1TSHgdDv
ssBSxHeWnk/cW8xgWqARe+aPrtCXpnzewYnp8WykLAzoVnlWZWWlZ2VYvGp3iEPJ
PQ98032JEdo+cHaTCNhLNW8sCqRek2kF11XppxKoKFZEEAg9wKqsA/3X/of0keee
YuhTRoZcOGcbqMu4qI17nRvYKWR1umohTdVhMosz5gymK/XO70Kj+skzkvWdVaPD
YSu1ZjU3PX//kYlN4wlD2jiDeuJbjh43JgfL31yAZSuw4OodR/+Xo5A/2f4cV7Gj
bmEvoLbJFKD/EHjwuwAUTn349DBRDkVLUlSINVioZgmv5/PStM8Eo+58VCL5AJoL
wfVLneRgG5MCAwEAAaN7MHkwCQYDVR0TBAIwADAsBglghkgBhvhCAQ0EHxYdT3Bl
blNTTCBHZW5lcmF0ZWQgQ2VydGlmaWNhdGUwHQYDVR0OBBYEFCnIdW/UL7ed0wtT
9DJ0BV1HFl1FMB8GA1UdIwQYMBaAFEcCttMNBYCJCEjMyUn+ed1zeHW9MA0GCSqG
SIb3DQEBCwUAA4IBAQCJ2u188rLc8unqd08Ww1TMFUAKpiU9+n9iv98yX57y4OYW
/IH6vmB8e5lWMBahMAxJ8hM9Bokj9+lglUCuGWjSINzNHhIlpAHavXRBn2QnW+Dx
YWDjIjZotsQZMbyciREKhNVWgXdSIOX0/PY8Ky2Jl9+rc+iJ9jp0LPPOH4ty4cSE
sFT2AFemBafE2A6MtAKfiOeKYhyIk5SsMeoTNBBHhGhzgcei3q0RCzK3JHW25fW+
0EDEnAm3SPQjAeBSz+AiKSmlAP2DgYJTNNMYbWIQGw2He24qJB7+m3Kf5ZnVy+n1
7kopAjmhO8R1i5OMvz34mbE1FRivfvus/H7wT8p1
-----END CERTIFICATE-----
